
main:     file format elf64-x86-64


Disassembly of section .init:

0000000000009000 <_init>:
    9000:	f3 0f 1e fa          	endbr64
    9004:	48 83 ec 08          	sub    $0x8,%rsp
    9008:	48 8b 05 91 af 05 00 	mov    0x5af91(%rip),%rax        # 63fa0 <__gmon_start__@Base>
    900f:	48 85 c0             	test   %rax,%rax
    9012:	74 02                	je     9016 <_init+0x16>
    9014:	ff d0                	call   *%rax
    9016:	48 83 c4 08          	add    $0x8,%rsp
    901a:	c3                   	ret

Disassembly of section .plt:

0000000000009020 <_ZN5torch2nn13LinearOptionsC1Ell@plt-0x10>:
    9020:	ff 35 ca af 05 00    	push   0x5afca(%rip)        # 63ff0 <_GLOBAL_OFFSET_TABLE_+0x8>
    9026:	ff 25 cc af 05 00    	jmp    *0x5afcc(%rip)        # 63ff8 <_GLOBAL_OFFSET_TABLE_+0x10>
    902c:	0f 1f 40 00          	nopl   0x0(%rax)

0000000000009030 <_ZN5torch2nn13LinearOptionsC1Ell@plt>:
    9030:	ff 25 ca af 05 00    	jmp    *0x5afca(%rip)        # 64000 <_ZN5torch2nn13LinearOptionsC1Ell@Base>
    9036:	68 00 00 00 00       	push   $0x0
    903b:	e9 e0 ff ff ff       	jmp    9020 <_init+0x20>

0000000000009040 <_ZNSt14basic_ifstreamIcSt11char_traitsIcEED1Ev@plt>:
    9040:	ff 25 c2 af 05 00    	jmp    *0x5afc2(%rip)        # 64008 <_ZNSt14basic_ifstreamIcSt11char_traitsIcEED1Ev@GLIBCXX_3.4>
    9046:	68 01 00 00 00       	push   $0x1
    904b:	e9 d0 ff ff ff       	jmp    9020 <_init+0x20>

0000000000009050 <__cxa_begin_catch@plt>:
    9050:	ff 25 ba af 05 00    	jmp    *0x5afba(%rip)        # 64010 <__cxa_begin_catch@CXXABI_1.3>
    9056:	68 02 00 00 00       	push   $0x2
    905b:	e9 c0 ff ff ff       	jmp    9020 <_init+0x20>

0000000000009060 <_ZStlsIcSt11char_traitsIcESaIcEERSt13basic_ostreamIT_T0_ES7_RKSbIS4_S5_T1_E@plt>:
    9060:	ff 25 b2 af 05 00    	jmp    *0x5afb2(%rip)        # 64018 <_ZStlsIcSt11char_traitsIcESaIcEERSt13basic_ostreamIT_T0_ES7_RKSbIS4_S5_T1_E@GLIBCXX_3.4>
    9066:	68 03 00 00 00       	push   $0x3
    906b:	e9 b0 ff ff ff       	jmp    9020 <_init+0x20>

0000000000009070 <_ZN2at4_ops13scalar_tensor4callERKN3c106ScalarESt8optionalINS2_10ScalarTypeEES6_INS2_6LayoutEES6_INS2_6DeviceEES6_IbE@plt>:
    9070:	ff 25 aa af 05 00    	jmp    *0x5afaa(%rip)        # 64020 <_ZN2at4_ops13scalar_tensor4callERKN3c106ScalarESt8optionalINS2_10ScalarTypeEES6_INS2_6LayoutEES6_INS2_6DeviceEES6_IbE@Base>
    9076:	68 04 00 00 00       	push   $0x4
    907b:	e9 a0 ff ff ff       	jmp    9020 <_init+0x20>

0000000000009080 <_ZN2at4_ops20binary_cross_entropy4callERKNS_6TensorES4_RKSt8optionalIS2_El@plt>:
    9080:	ff 25 a2 af 05 00    	jmp    *0x5afa2(%rip)        # 64028 <_ZN2at4_ops20binary_cross_entropy4callERKNS_6TensorES4_RKSt8optionalIS2_El@Base>
    9086:	68 05 00 00 00       	push   $0x5
    908b:	e9 90 ff ff ff       	jmp    9020 <_init+0x20>

0000000000009090 <_ZNSt9exceptionD2Ev@plt>:
    9090:	ff 25 9a af 05 00    	jmp    *0x5af9a(%rip)        # 64030 <_ZNSt9exceptionD2Ev@GLIBCXX_3.4>
    9096:	68 06 00 00 00       	push   $0x6
    909b:	e9 80 ff ff ff       	jmp    9020 <_init+0x20>

00000000000090a0 <_ZNKSs8capacityEv@plt>:
    90a0:	ff 25 92 af 05 00    	jmp    *0x5af92(%rip)        # 64038 <_ZNKSs8capacityEv@GLIBCXX_3.4>
    90a6:	68 07 00 00 00       	push   $0x7
    90ab:	e9 70 ff ff ff       	jmp    9020 <_init+0x20>

00000000000090b0 <memmove@plt>:
    90b0:	ff 25 8a af 05 00    	jmp    *0x5af8a(%rip)        # 64040 <memmove@GLIBC_2.2.5>
    90b6:	68 08 00 00 00       	push   $0x8
    90bb:	e9 60 ff ff ff       	jmp    9020 <_init+0x20>

00000000000090c0 <_ZN2at6tensorEN3c108ArrayRefIfEERKNS0_13TensorOptionsE@plt>:
    90c0:	ff 25 82 af 05 00    	jmp    *0x5af82(%rip)        # 64048 <_ZN2at6tensorEN3c108ArrayRefIfEERKNS0_13TensorOptionsE@Base>
    90c6:	68 09 00 00 00       	push   $0x9
    90cb:	e9 50 ff ff ff       	jmp    9020 <_init+0x20>

00000000000090d0 <__assert_fail@plt>:
    90d0:	ff 25 7a af 05 00    	jmp    *0x5af7a(%rip)        # 64050 <__assert_fail@GLIBC_2.2.5>
    90d6:	68 0a 00 00 00       	push   $0xa
    90db:	e9 40 ff ff ff       	jmp    9020 <_init+0x20>

00000000000090e0 <_ZSt24__throw_invalid_argumentPKc@plt>:
    90e0:	ff 25 72 af 05 00    	jmp    *0x5af72(%rip)        # 64058 <_ZSt24__throw_invalid_argumentPKc@GLIBCXX_3.4>
    90e6:	68 0b 00 00 00       	push   $0xb
    90eb:	e9 30 ff ff ff       	jmp    9020 <_init+0x20>

00000000000090f0 <_ZNK5torch5optim19OptimizerParamGroup7optionsEv@plt>:
    90f0:	ff 25 6a af 05 00    	jmp    *0x5af6a(%rip)        # 64060 <_ZNK5torch5optim19OptimizerParamGroup7optionsEv@Base>
    90f6:	68 0c 00 00 00       	push   $0xc
    90fb:	e9 20 ff ff ff       	jmp    9020 <_init+0x20>

0000000000009100 <__stack_chk_fail@plt>:
    9100:	ff 25 62 af 05 00    	jmp    *0x5af62(%rip)        # 64068 <__stack_chk_fail@GLIBC_2.4>
    9106:	68 0d 00 00 00       	push   $0xd
    910b:	e9 10 ff ff ff       	jmp    9020 <_init+0x20>

0000000000009110 <memset@plt>:
    9110:	ff 25 5a af 05 00    	jmp    *0x5af5a(%rip)        # 64070 <memset@GLIBC_2.2.5>
    9116:	68 0e 00 00 00       	push   $0xe
    911b:	e9 00 ff ff ff       	jmp    9020 <_init+0x20>

0000000000009120 <_ZN3c106detail14torchCheckFailEPKcS2_jS2_@plt>:
    9120:	ff 25 52 af 05 00    	jmp    *0x5af52(%rip)        # 64078 <_ZN3c106detail14torchCheckFailEPKcS2_jS2_@Base>
    9126:	68 0f 00 00 00       	push   $0xf
    912b:	e9 f0 fe ff ff       	jmp    9020 <_init+0x20>

0000000000009130 <_ZNSt13runtime_errorC1EPKc@plt>:
    9130:	ff 25 4a af 05 00    	jmp    *0x5af4a(%rip)        # 64080 <_ZNSt13runtime_errorC1EPKc@Base>
    9136:	68 10 00 00 00       	push   $0x10
    913b:	e9 e0 fe ff ff       	jmp    9020 <_init+0x20>

0000000000009140 <_ZNSt6thread4joinEv@plt>:
    9140:	ff 25 42 af 05 00    	jmp    *0x5af42(%rip)        # 64088 <_ZNSt6thread4joinEv@GLIBCXX_3.4.11>
    9146:	68 11 00 00 00       	push   $0x11
    914b:	e9 d0 fe ff ff       	jmp    9020 <_init+0x20>

0000000000009150 <_ZSt17rethrow_exceptionNSt15__exception_ptr13exception_ptrE@plt>:
    9150:	ff 25 3a af 05 00    	jmp    *0x5af3a(%rip)        # 64090 <_ZSt17rethrow_exceptionNSt15__exception_ptr13exception_ptrE@CXXABI_1.3.3>
    9156:	68 12 00 00 00       	push   $0x12
    915b:	e9 c0 fe ff ff       	jmp    9020 <_init+0x20>

0000000000009160 <_ZN2at10infer_sizeEN3c108ArrayRefIlEES2_@plt>:
    9160:	ff 25 32 af 05 00    	jmp    *0x5af32(%rip)        # 64098 <_ZN2at10infer_sizeEN3c108ArrayRefIlEES2_@Base>
    9166:	68 13 00 00 00       	push   $0x13
    916b:	e9 b0 fe ff ff       	jmp    9020 <_init+0x20>

0000000000009170 <_ZNKSs4findEcm@plt>:
    9170:	ff 25 2a af 05 00    	jmp    *0x5af2a(%rip)        # 640a0 <_ZNKSs4findEcm@GLIBCXX_3.4>
    9176:	68 14 00 00 00       	push   $0x14
    917b:	e9 a0 fe ff ff       	jmp    9020 <_init+0x20>

0000000000009180 <_ZNK3c106IValue23reportToTensorTypeErrorEv@plt>:
    9180:	ff 25 22 af 05 00    	jmp    *0x5af22(%rip)        # 640a8 <_ZNK3c106IValue23reportToTensorTypeErrorEv@Base>
    9186:	68 15 00 00 00       	push   $0x15
    918b:	e9 90 fe ff ff       	jmp    9020 <_init+0x20>

0000000000009190 <_ZNSolsEl@plt>:
    9190:	ff 25 1a af 05 00    	jmp    *0x5af1a(%rip)        # 640b0 <_ZNSolsEl@GLIBCXX_3.4>
    9196:	68 16 00 00 00       	push   $0x16
    919b:	e9 80 fe ff ff       	jmp    9020 <_init+0x20>

00000000000091a0 <strlen@plt>:
    91a0:	ff 25 12 af 05 00    	jmp    *0x5af12(%rip)        # 640b8 <strlen@GLIBC_2.2.5>
    91a6:	68 17 00 00 00       	push   $0x17
    91ab:	e9 70 fe ff ff       	jmp    9020 <_init+0x20>

00000000000091b0 <_ZN3c106SymIntC1ENS_13intrusive_ptrINS_11SymNodeImplENS_6detail34intrusive_target_default_null_typeIS2_EEEE@plt>:
    91b0:	ff 25 0a af 05 00    	jmp    *0x5af0a(%rip)        # 640c0 <_ZN3c106SymIntC1ENS_13intrusive_ptrINS_11SymNodeImplENS_6detail34intrusive_target_default_null_typeIS2_EEEE@Base>
    91b6:	68 18 00 00 00       	push   $0x18
    91bb:	e9 60 fe ff ff       	jmp    9020 <_init+0x20>

00000000000091c0 <_ZSt20__throw_system_errori@plt>:
    91c0:	ff 25 02 af 05 00    	jmp    *0x5af02(%rip)        # 640c8 <_ZSt20__throw_system_errori@GLIBCXX_3.4.11>
    91c6:	68 19 00 00 00       	push   $0x19
    91cb:	e9 50 fe ff ff       	jmp    9020 <_init+0x20>

00000000000091d0 <_ZN5torch2nn10LinearImpl7forwardERKN2at6TensorE@plt>:
    91d0:	ff 25 fa ae 05 00    	jmp    *0x5aefa(%rip)        # 640d0 <_ZN5torch2nn10LinearImpl7forwardERKN2at6TensorE@Base>
    91d6:	68 1a 00 00 00       	push   $0x1a
    91db:	e9 40 fe ff ff       	jmp    9020 <_init+0x20>

00000000000091e0 <_ZNK2at6Tensor4itemIfEET_v@plt>:
    91e0:	ff 25 f2 ae 05 00    	jmp    *0x5aef2(%rip)        # 640d8 <_ZNK2at6Tensor4itemIfEET_v@Base>
    91e6:	68 1b 00 00 00       	push   $0x1b
    91eb:	e9 30 fe ff ff       	jmp    9020 <_init+0x20>

00000000000091f0 <_ZN3c106SymInt19promote_to_negativeEv@plt>:
    91f0:	ff 25 ea ae 05 00    	jmp    *0x5aeea(%rip)        # 640e0 <_ZN3c106SymInt19promote_to_negativeEv@Base>
    91f6:	68 1c 00 00 00       	push   $0x1c
    91fb:	e9 20 fe ff ff       	jmp    9020 <_init+0x20>

0000000000009200 <_ZSt7getlineIcSt11char_traitsIcESaIcEERSt13basic_istreamIT_T0_ES7_RSbIS4_S5_T1_ES4_@plt>:
    9200:	ff 25 e2 ae 05 00    	jmp    *0x5aee2(%rip)        # 640e8 <_ZSt7getlineIcSt11char_traitsIcESaIcEERSt13basic_istreamIT_T0_ES7_RSbIS4_S5_T1_ES4_@GLIBCXX_3.4>
    9206:	68 1d 00 00 00       	push   $0x1d
    920b:	e9 10 fe ff ff       	jmp    9020 <_init+0x20>

0000000000009210 <_ZN3c106detail23torchInternalAssertFailEPKcS2_jS2_S2_@plt>:
    9210:	ff 25 da ae 05 00    	jmp    *0x5aeda(%rip)        # 640f0 <_ZN3c106detail23torchInternalAssertFailEPKcS2_jS2_S2_@Base>
    9216:	68 1e 00 00 00       	push   $0x1e
    921b:	e9 00 fe ff ff       	jmp    9020 <_init+0x20>

0000000000009220 <_ZSt11_Hash_bytesPKvmm@plt>:
    9220:	ff 25 d2 ae 05 00    	jmp    *0x5aed2(%rip)        # 640f8 <_ZSt11_Hash_bytesPKvmm@CXXABI_1.3.5>
    9226:	68 1f 00 00 00       	push   $0x1f
    922b:	e9 f0 fd ff ff       	jmp    9020 <_init+0x20>

0000000000009230 <_ZN2at4_ops19empty_memory_format4callEN3c108ArrayRefINS2_6SymIntEEESt8optionalINS2_10ScalarTypeEES6_INS2_6LayoutEES6_INS2_6DeviceEES6_IbES6_INS2_12MemoryFormatEE@plt>:
    9230:	ff 25 ca ae 05 00    	jmp    *0x5aeca(%rip)        # 64100 <_ZN2at4_ops19empty_memory_format4callEN3c108ArrayRefINS2_6SymIntEEESt8optionalINS2_10ScalarTypeEES6_INS2_6LayoutEES6_INS2_6DeviceEES6_IbES6_INS2_12MemoryFormatEE@Base>
    9236:	68 20 00 00 00       	push   $0x20
    923b:	e9 e0 fd ff ff       	jmp    9020 <_init+0x20>

0000000000009240 <_ZNSs6appendEPKcm@plt>:
    9240:	ff 25 c2 ae 05 00    	jmp    *0x5aec2(%rip)        # 64108 <_ZNSs6appendEPKcm@GLIBCXX_3.4>
    9246:	68 21 00 00 00       	push   $0x21
    924b:	e9 d0 fd ff ff       	jmp    9020 <_init+0x20>

0000000000009250 <__cxa_throw@plt>:
    9250:	ff 25 ba ae 05 00    	jmp    *0x5aeba(%rip)        # 64110 <__cxa_throw@CXXABI_1.3>
    9256:	68 22 00 00 00       	push   $0x22
    925b:	e9 c0 fd ff ff       	jmp    9020 <_init+0x20>

0000000000009260 <_ZN2at4_ops10leaky_relu4callERKNS_6TensorERKN3c106ScalarE@plt>:
    9260:	ff 25 b2 ae 05 00    	jmp    *0x5aeb2(%rip)        # 64118 <_ZN2at4_ops10leaky_relu4callERKNS_6TensorERKN3c106ScalarE@Base>
    9266:	68 23 00 00 00       	push   $0x23
    926b:	e9 b0 fd ff ff       	jmp    9020 <_init+0x20>

0000000000009270 <_ZSt20__throw_out_of_rangePKc@plt>:
    9270:	ff 25 aa ae 05 00    	jmp    *0x5aeaa(%rip)        # 64120 <_ZSt20__throw_out_of_rangePKc@GLIBCXX_3.4>
    9276:	68 24 00 00 00       	push   $0x24
    927b:	e9 a0 fd ff ff       	jmp    9020 <_init+0x20>

0000000000009280 <_ZSt20__throw_length_errorPKc@plt>:
    9280:	ff 25 a2 ae 05 00    	jmp    *0x5aea2(%rip)        # 64128 <_ZSt20__throw_length_errorPKc@GLIBCXX_3.4>
    9286:	68 25 00 00 00       	push   $0x25
    928b:	e9 90 fd ff ff       	jmp    9020 <_init+0x20>

0000000000009290 <_ZNSt14basic_ifstreamIcSt11char_traitsIcEEC1ERKSsSt13_Ios_Openmode@plt>:
    9290:	ff 25 9a ae 05 00    	jmp    *0x5ae9a(%rip)        # 64130 <_ZNSt14basic_ifstreamIcSt11char_traitsIcEEC1ERKSsSt13_Ios_Openmode@GLIBCXX_3.4.13>
    9296:	68 26 00 00 00       	push   $0x26
    929b:	e9 80 fd ff ff       	jmp    9020 <_init+0x20>

00000000000092a0 <_ZNSs6appendEPKc@plt>:
    92a0:	ff 25 92 ae 05 00    	jmp    *0x5ae92(%rip)        # 64138 <_ZNSs6appendEPKc@GLIBCXX_3.4>
    92a6:	68 27 00 00 00       	push   $0x27
    92ab:	e9 70 fd ff ff       	jmp    9020 <_init+0x20>

00000000000092b0 <_ZNKSt19basic_ostringstreamIcSt11char_traitsIcESaIcEE3strEv@plt>:
    92b0:	ff 25 8a ae 05 00    	jmp    *0x5ae8a(%rip)        # 64140 <_ZNKSt19basic_ostringstreamIcSt11char_traitsIcESaIcEE3strEv@GLIBCXX_3.4>
    92b6:	68 28 00 00 00       	push   $0x28
    92bb:	e9 60 fd ff ff       	jmp    9020 <_init+0x20>

00000000000092c0 <_Unwind_Resume@plt>:
    92c0:	ff 25 82 ae 05 00    	jmp    *0x5ae82(%rip)        # 64148 <_Unwind_Resume@GCC_3.0>
    92c6:	68 29 00 00 00       	push   $0x29
    92cb:	e9 50 fd ff ff       	jmp    9020 <_init+0x20>

00000000000092d0 <_ZNSt18basic_stringstreamIcSt11char_traitsIcESaIcEEC1ERKSsSt13_Ios_Openmode@plt>:
    92d0:	ff 25 7a ae 05 00    	jmp    *0x5ae7a(%rip)        # 64150 <_ZNSt18basic_stringstreamIcSt11char_traitsIcESaIcEEC1ERKSsSt13_Ios_Openmode@GLIBCXX_3.4>
    92d6:	68 2a 00 00 00       	push   $0x2a
    92db:	e9 40 fd ff ff       	jmp    9020 <_init+0x20>

00000000000092e0 <_ZN3c108GradMode11set_enabledEb@plt>:
    92e0:	ff 25 72 ae 05 00    	jmp    *0x5ae72(%rip)        # 64158 <_ZN3c108GradMode11set_enabledEb@Base>
    92e6:	68 2b 00 00 00       	push   $0x2b
    92eb:	e9 30 fd ff ff       	jmp    9020 <_init+0x20>

00000000000092f0 <_ZN2at4_ops7sigmoid4callERKNS_6TensorE@plt>:
    92f0:	ff 25 6a ae 05 00    	jmp    *0x5ae6a(%rip)        # 64160 <_ZN2at4_ops7sigmoid4callERKNS_6TensorE@Base>
    92f6:	68 2c 00 00 00       	push   $0x2c
    92fb:	e9 20 fd ff ff       	jmp    9020 <_init+0x20>

0000000000009300 <_ZN3c108GradMode10is_enabledEv@plt>:
    9300:	ff 25 62 ae 05 00    	jmp    *0x5ae62(%rip)        # 64168 <_ZN3c108GradMode10is_enabledEv@Base>
    9306:	68 2d 00 00 00       	push   $0x2d
    930b:	e9 10 fd ff ff       	jmp    9020 <_init+0x20>

0000000000009310 <_ZNSs12_Alloc_hiderC1EPcRKSaIcE@plt>:
    9310:	ff 25 5a ae 05 00    	jmp    *0x5ae5a(%rip)        # 64170 <_ZNSs12_Alloc_hiderC1EPcRKSaIcE@GLIBCXX_3.4>
    9316:	68 2e 00 00 00       	push   $0x2e
    931b:	e9 00 fd ff ff       	jmp    9020 <_init+0x20>

0000000000009320 <_ZSt24__throw_out_of_range_fmtPKcz@plt>:
    9320:	ff 25 52 ae 05 00    	jmp    *0x5ae52(%rip)        # 64178 <_ZSt24__throw_out_of_range_fmtPKcz@Base>
    9326:	68 2f 00 00 00       	push   $0x2f
    932b:	e9 f0 fc ff ff       	jmp    9020 <_init+0x20>

0000000000009330 <_ZNKSs5emptyEv@plt>:
    9330:	ff 25 4a ae 05 00    	jmp    *0x5ae4a(%rip)        # 64180 <_ZNKSs5emptyEv@GLIBCXX_3.4>
    9336:	68 30 00 00 00       	push   $0x30
    933b:	e9 e0 fc ff ff       	jmp    9020 <_init+0x20>

0000000000009340 <_ZNSolsEj@plt>:
    9340:	ff 25 42 ae 05 00    	jmp    *0x5ae42(%rip)        # 64188 <_ZNSolsEj@GLIBCXX_3.4>
    9346:	68 31 00 00 00       	push   $0x31
    934b:	e9 d0 fc ff ff       	jmp    9020 <_init+0x20>

0000000000009350 <_ZNSolsEd@plt>:
    9350:	ff 25 3a ae 05 00    	jmp    *0x5ae3a(%rip)        # 64190 <_ZNSolsEd@GLIBCXX_3.4>
    9356:	68 32 00 00 00       	push   $0x32
    935b:	e9 c0 fc ff ff       	jmp    9020 <_init+0x20>

0000000000009360 <_ZN3c106detail23torchInternalAssertFailEPKcS2_jS2_RKSs@plt>:
    9360:	ff 25 32 ae 05 00    	jmp    *0x5ae32(%rip)        # 64198 <_ZN3c106detail23torchInternalAssertFailEPKcS2_jS2_RKSs@Base>
    9366:	68 33 00 00 00       	push   $0x33
    936b:	e9 b0 fc ff ff       	jmp    9020 <_init+0x20>

0000000000009370 <_ZNSt18condition_variableC1Ev@plt>:
    9370:	ff 25 2a ae 05 00    	jmp    *0x5ae2a(%rip)        # 641a0 <_ZNSt18condition_variableC1Ev@GLIBCXX_3.4.11>
    9376:	68 34 00 00 00       	push   $0x34
    937b:	e9 a0 fc ff ff       	jmp    9020 <_init+0x20>

0000000000009380 <_ZSt7getlineIcSt11char_traitsIcESaIcEERSt13basic_istreamIT_T0_ES7_RSbIS4_S5_T1_E@plt>:
    9380:	ff 25 22 ae 05 00    	jmp    *0x5ae22(%rip)        # 641a8 <_ZSt7getlineIcSt11char_traitsIcESaIcEERSt13basic_istreamIT_T0_ES7_RSbIS4_S5_T1_E@GLIBCXX_3.4>
    9386:	68 35 00 00 00       	push   $0x35
    938b:	e9 90 fc ff ff       	jmp    9020 <_init+0x20>

0000000000009390 <_ZNKSs4dataEv@plt>:
    9390:	ff 25 1a ae 05 00    	jmp    *0x5ae1a(%rip)        # 641b0 <_ZNKSs4dataEv@GLIBCXX_3.4>
    9396:	68 36 00 00 00       	push   $0x36
    939b:	e9 80 fc ff ff       	jmp    9020 <_init+0x20>

00000000000093a0 <_ZNSt6thread15_M_start_threadESt10unique_ptrINS_6_StateESt14default_deleteIS1_EEPFvvE@plt>:
    93a0:	ff 25 12 ae 05 00    	jmp    *0x5ae12(%rip)        # 641b8 <_ZNSt6thread15_M_start_threadESt10unique_ptrINS_6_StateESt14default_deleteIS1_EEPFvvE@Base>
    93a6:	68 37 00 00 00       	push   $0x37
    93ab:	e9 70 fc ff ff       	jmp    9020 <_init+0x20>

00000000000093b0 <_ZNSs13_S_copy_charsEPcPKcS1_@plt>:
    93b0:	ff 25 0a ae 05 00    	jmp    *0x5ae0a(%rip)        # 641c0 <_ZNSs13_S_copy_charsEPcPKcS1_@GLIBCXX_3.4>
    93b6:	68 38 00 00 00       	push   $0x38
    93bb:	e9 60 fc ff ff       	jmp    9020 <_init+0x20>

00000000000093c0 <_ZNSt6chrono3_V212steady_clock3nowEv@plt>:
    93c0:	ff 25 02 ae 05 00    	jmp    *0x5ae02(%rip)        # 641c8 <_ZNSt6chrono3_V212steady_clock3nowEv@GLIBCXX_3.4.19>
    93c6:	68 39 00 00 00       	push   $0x39
    93cb:	e9 50 fc ff ff       	jmp    9020 <_init+0x20>

00000000000093d0 <_ZNSsC1ERKSaIcE@plt>:
    93d0:	ff 25 fa ad 05 00    	jmp    *0x5adfa(%rip)        # 641d0 <_ZNSsC1ERKSaIcE@GLIBCXX_3.4>
    93d6:	68 3a 00 00 00       	push   $0x3a
    93db:	e9 40 fc ff ff       	jmp    9020 <_init+0x20>

00000000000093e0 <_ZN6caffe28TypeMeta26error_unsupported_typemetaES0_@plt>:
    93e0:	ff 25 f2 ad 05 00    	jmp    *0x5adf2(%rip)        # 641d8 <_ZN6caffe28TypeMeta26error_unsupported_typemetaES0_@Base>
    93e6:	68 3b 00 00 00       	push   $0x3b
    93eb:	e9 30 fc ff ff       	jmp    9020 <_init+0x20>

00000000000093f0 <_ZNSolsEm@plt>:
    93f0:	ff 25 ea ad 05 00    	jmp    *0x5adea(%rip)        # 641e0 <_ZNSolsEm@GLIBCXX_3.4>
    93f6:	68 3c 00 00 00       	push   $0x3c
    93fb:	e9 20 fc ff ff       	jmp    9020 <_init+0x20>

0000000000009400 <_ZNSolsEf@plt>:
    9400:	ff 25 e2 ad 05 00    	jmp    *0x5ade2(%rip)        # 641e8 <_ZNSolsEf@GLIBCXX_3.4>
    9406:	68 3d 00 00 00       	push   $0x3d
    940b:	e9 10 fc ff ff       	jmp    9020 <_init+0x20>

0000000000009410 <memcmp@plt>:
    9410:	ff 25 da ad 05 00    	jmp    *0x5adda(%rip)        # 641f0 <memcmp@GLIBC_2.2.5>
    9416:	68 3e 00 00 00       	push   $0x3e
    941b:	e9 00 fc ff ff       	jmp    9020 <_init+0x20>

0000000000009420 <_ZN3c104impl23ExcludeDispatchKeyGuardC1ENS_14DispatchKeySetE@plt>:
    9420:	ff 25 d2 ad 05 00    	jmp    *0x5add2(%rip)        # 641f8 <_ZN3c104impl23ExcludeDispatchKeyGuardC1ENS_14DispatchKeySetE@Base>
    9426:	68 3f 00 00 00       	push   $0x3f
    942b:	e9 f0 fb ff ff       	jmp    9020 <_init+0x20>

0000000000009430 <_ZSt25__throw_bad_function_callv@plt>:
    9430:	ff 25 ca ad 05 00    	jmp    *0x5adca(%rip)        # 64200 <_ZSt25__throw_bad_function_callv@GLIBCXX_3.4.14>
    9436:	68 40 00 00 00       	push   $0x40
    943b:	e9 e0 fb ff ff       	jmp    9020 <_init+0x20>

0000000000009440 <pthread_cond_clockwait@plt>:
    9440:	ff 25 c2 ad 05 00    	jmp    *0x5adc2(%rip)        # 64208 <pthread_cond_clockwait@GLIBC_2.34>
    9446:	68 41 00 00 00       	push   $0x41
    944b:	e9 d0 fb ff ff       	jmp    9020 <_init+0x20>

0000000000009450 <_ZNK5torch2nn6Module10parametersEb@plt>:
    9450:	ff 25 ba ad 05 00    	jmp    *0x5adba(%rip)        # 64210 <_ZNK5torch2nn6Module10parametersEb@Base>
    9456:	68 42 00 00 00       	push   $0x42
    945b:	e9 c0 fb ff ff       	jmp    9020 <_init+0x20>

0000000000009460 <_ZN5torch2nn6ModuleC2Ev@plt>:
    9460:	ff 25 b2 ad 05 00    	jmp    *0x5adb2(%rip)        # 64218 <_ZN5torch2nn6ModuleC2Ev@Base>
    9466:	68 43 00 00 00       	push   $0x43
    946b:	e9 b0 fb ff ff       	jmp    9020 <_init+0x20>

0000000000009470 <_ZNSt19basic_ostringstreamIcSt11char_traitsIcESaIcEEC1Ev@plt>:
    9470:	ff 25 aa ad 05 00    	jmp    *0x5adaa(%rip)        # 64220 <_ZNSt19basic_ostringstreamIcSt11char_traitsIcESaIcEEC1Ev@Base>
    9476:	68 44 00 00 00       	push   $0x44
    947b:	e9 a0 fb ff ff       	jmp    9020 <_init+0x20>

0000000000009480 <_ZNK5torch5optim19OptimizerParamGroup11has_optionsEv@plt>:
    9480:	ff 25 a2 ad 05 00    	jmp    *0x5ada2(%rip)        # 64228 <_ZNK5torch5optim19OptimizerParamGroup11has_optionsEv@Base>
    9486:	68 45 00 00 00       	push   $0x45
    948b:	e9 90 fb ff ff       	jmp    9020 <_init+0x20>

0000000000009490 <_ZNKSs4sizeEv@plt>:
    9490:	ff 25 9a ad 05 00    	jmp    *0x5ad9a(%rip)        # 64230 <_ZNKSs4sizeEv@GLIBCXX_3.4>
    9496:	68 46 00 00 00       	push   $0x46
    949b:	e9 80 fb ff ff       	jmp    9020 <_init+0x20>

00000000000094a0 <_ZNSs7reserveEm@plt>:
    94a0:	ff 25 92 ad 05 00    	jmp    *0x5ad92(%rip)        # 64238 <_ZNSs7reserveEm@GLIBCXX_3.4>
    94a6:	68 47 00 00 00       	push   $0x47
    94ab:	e9 70 fb ff ff       	jmp    9020 <_init+0x20>

00000000000094b0 <_ZN2at4_ops12fill__Scalar4callERNS_6TensorERKN3c106ScalarE@plt>:
    94b0:	ff 25 8a ad 05 00    	jmp    *0x5ad8a(%rip)        # 64240 <_ZN2at4_ops12fill__Scalar4callERNS_6TensorERKN3c106ScalarE@Base>
    94b6:	68 48 00 00 00       	push   $0x48
    94bb:	e9 60 fb ff ff       	jmp    9020 <_init+0x20>

00000000000094c0 <_ZSt19__throw_logic_errorPKc@plt>:
    94c0:	ff 25 82 ad 05 00    	jmp    *0x5ad82(%rip)        # 64248 <_ZSt19__throw_logic_errorPKc@GLIBCXX_3.4>
    94c6:	68 49 00 00 00       	push   $0x49
    94cb:	e9 50 fb ff ff       	jmp    9020 <_init+0x20>

00000000000094d0 <_ZNK5torch5optim19OptimizerParamGroup6paramsEv@plt>:
    94d0:	ff 25 7a ad 05 00    	jmp    *0x5ad7a(%rip)        # 64250 <_ZNK5torch5optim19OptimizerParamGroup6paramsEv@Base>
    94d6:	68 4a 00 00 00       	push   $0x4a
    94db:	e9 40 fb ff ff       	jmp    9020 <_init+0x20>

00000000000094e0 <_ZNSsC1ERKSs@plt>:
    94e0:	ff 25 72 ad 05 00    	jmp    *0x5ad72(%rip)        # 64258 <_ZNSsC1ERKSs@GLIBCXX_3.4>
    94e6:	68 4b 00 00 00       	push   $0x4b
    94eb:	e9 30 fb ff ff       	jmp    9020 <_init+0x20>

00000000000094f0 <memcpy@plt>:
    94f0:	ff 25 6a ad 05 00    	jmp    *0x5ad6a(%rip)        # 64260 <memcpy@GLIBC_2.14>
    94f6:	68 4c 00 00 00       	push   $0x4c
    94fb:	e9 20 fb ff ff       	jmp    9020 <_init+0x20>

0000000000009500 <_ZSt17__throw_bad_allocv@plt>:
    9500:	ff 25 62 ad 05 00    	jmp    *0x5ad62(%rip)        # 64268 <_ZSt17__throw_bad_allocv@GLIBCXX_3.4>
    9506:	68 4d 00 00 00       	push   $0x4d
    950b:	e9 10 fb ff ff       	jmp    9020 <_init+0x20>

0000000000009510 <_Znwm@plt>:
    9510:	ff 25 5a ad 05 00    	jmp    *0x5ad5a(%rip)        # 64270 <_Znwm@GLIBCXX_3.4>
    9516:	68 4e 00 00 00       	push   $0x4e
    951b:	e9 00 fb ff ff       	jmp    9020 <_init+0x20>

0000000000009520 <_ZNSsC1Ev@plt>:
    9520:	ff 25 52 ad 05 00    	jmp    *0x5ad52(%rip)        # 64278 <_ZNSsC1Ev@GLIBCXX_3.4>
    9526:	68 4f 00 00 00       	push   $0x4f
    952b:	e9 f0 fa ff ff       	jmp    9020 <_init+0x20>

0000000000009530 <free@plt>:
    9530:	ff 25 4a ad 05 00    	jmp    *0x5ad4a(%rip)        # 64280 <free@GLIBC_2.2.5>
    9536:	68 50 00 00 00       	push   $0x50
    953b:	e9 e0 fa ff ff       	jmp    9020 <_init+0x20>

0000000000009540 <_ZN5torch5optim9Optimizer9zero_gradEb@plt>:
    9540:	ff 25 42 ad 05 00    	jmp    *0x5ad42(%rip)        # 64288 <_ZN5torch5optim9Optimizer9zero_gradEb@Base>
    9546:	68 51 00 00 00       	push   $0x51
    954b:	e9 d0 fa ff ff       	jmp    9020 <_init+0x20>

0000000000009550 <_ZNSt18basic_stringstreamIcSt11char_traitsIcESaIcEED1Ev@plt>:
    9550:	ff 25 3a ad 05 00    	jmp    *0x5ad3a(%rip)        # 64290 <_ZNSt18basic_stringstreamIcSt11char_traitsIcESaIcEED1Ev@GLIBCXX_3.4>
    9556:	68 52 00 00 00       	push   $0x52
    955b:	e9 c0 fa ff ff       	jmp    9020 <_init+0x20>

0000000000009560 <_ZNSt19basic_ostringstreamIcSt11char_traitsIcESaIcEED1Ev@plt>:
    9560:	ff 25 32 ad 05 00    	jmp    *0x5ad32(%rip)        # 64298 <_ZNSt19basic_ostringstreamIcSt11char_traitsIcESaIcEED1Ev@GLIBCXX_3.4>
    9566:	68 53 00 00 00       	push   $0x53
    956b:	e9 b0 fa ff ff       	jmp    9020 <_init+0x20>

0000000000009570 <_ZNKSs7_M_dataEv@plt>:
    9570:	ff 25 2a ad 05 00    	jmp    *0x5ad2a(%rip)        # 642a0 <_ZNKSs7_M_dataEv@GLIBCXX_3.4>
    9576:	68 54 00 00 00       	push   $0x54
    957b:	e9 a0 fa ff ff       	jmp    9020 <_init+0x20>

0000000000009580 <pthread_mutex_unlock@plt>:
    9580:	ff 25 22 ad 05 00    	jmp    *0x5ad22(%rip)        # 642a8 <pthread_mutex_unlock@GLIBC_2.2.5>
    9586:	68 55 00 00 00       	push   $0x55
    958b:	e9 90 fa ff ff       	jmp    9020 <_init+0x20>

0000000000009590 <_ZN3c1015SmallVectorBaseIjE8grow_podEPvmm@plt>:
    9590:	ff 25 1a ad 05 00    	jmp    *0x5ad1a(%rip)        # 642b0 <_ZN3c1015SmallVectorBaseIjE8grow_podEPvmm@Base>
    9596:	68 56 00 00 00       	push   $0x56
    959b:	e9 80 fa ff ff       	jmp    9020 <_init+0x20>

00000000000095a0 <_ZN2at4_ops15to_dtype_layout4callERKNS_6TensorESt8optionalIN3c1010ScalarTypeEES5_INS6_6LayoutEES5_INS6_6DeviceEES5_IbEbbS5_INS6_12MemoryFormatEE@plt>:
    95a0:	ff 25 12 ad 05 00    	jmp    *0x5ad12(%rip)        # 642b8 <_ZN2at4_ops15to_dtype_layout4callERKNS_6TensorESt8optionalIN3c1010ScalarTypeEES5_INS6_6LayoutEES5_INS6_6DeviceEES5_IbEbbS5_INS6_12MemoryFormatEE@Base>
    95a6:	68 57 00 00 00       	push   $0x57
    95ab:	e9 70 fa ff ff       	jmp    9020 <_init+0x20>

00000000000095b0 <_ZNSolsEi@plt>:
    95b0:	ff 25 0a ad 05 00    	jmp    *0x5ad0a(%rip)        # 642c0 <_ZNSolsEi@GLIBCXX_3.4>
    95b6:	68 58 00 00 00       	push   $0x58
    95bb:	e9 60 fa ff ff       	jmp    9020 <_init+0x20>

00000000000095c0 <_ZNKSs13get_allocatorEv@plt>:
    95c0:	ff 25 02 ad 05 00    	jmp    *0x5ad02(%rip)        # 642c8 <_ZNKSs13get_allocatorEv@GLIBCXX_3.4>
    95c6:	68 59 00 00 00       	push   $0x59
    95cb:	e9 50 fa ff ff       	jmp    9020 <_init+0x20>

00000000000095d0 <_ZN5torch4data8samplers13RandomSampler5resetESt8optionalImE@plt>:
    95d0:	ff 25 fa ac 05 00    	jmp    *0x5acfa(%rip)        # 642d0 <_ZN5torch4data8samplers13RandomSampler5resetESt8optionalImE@Base>
    95d6:	68 5a 00 00 00       	push   $0x5a
    95db:	e9 40 fa ff ff       	jmp    9020 <_init+0x20>

00000000000095e0 <pthread_mutex_lock@plt>:
    95e0:	ff 25 f2 ac 05 00    	jmp    *0x5acf2(%rip)        # 642d8 <pthread_mutex_lock@GLIBC_2.2.5>
    95e6:	68 5b 00 00 00       	push   $0x5b
    95eb:	e9 30 fa ff ff       	jmp    9020 <_init+0x20>

00000000000095f0 <_ZNSt15__exception_ptr13exception_ptr10_M_releaseEv@plt>:
    95f0:	ff 25 ea ac 05 00    	jmp    *0x5acea(%rip)        # 642e0 <_ZNSt15__exception_ptr13exception_ptr10_M_releaseEv@CXXABI_1.3.13>
    95f6:	68 5c 00 00 00       	push   $0x5c
    95fb:	e9 20 fa ff ff       	jmp    9020 <_init+0x20>

0000000000009600 <_ZNSt15__exception_ptr13exception_ptr9_M_addrefEv@plt>:
    9600:	ff 25 e2 ac 05 00    	jmp    *0x5ace2(%rip)        # 642e8 <_ZNSt15__exception_ptr13exception_ptr9_M_addrefEv@CXXABI_1.3.13>
    9606:	68 5d 00 00 00       	push   $0x5d
    960b:	e9 10 fa ff ff       	jmp    9020 <_init+0x20>

0000000000009610 <_ZNSs12_S_empty_repEv@plt>:
    9610:	ff 25 da ac 05 00    	jmp    *0x5acda(%rip)        # 642f0 <_ZNSs12_S_empty_repEv@GLIBCXX_3.4>
    9616:	68 5e 00 00 00       	push   $0x5e
    961b:	e9 00 fa ff ff       	jmp    9020 <_init+0x20>

0000000000009620 <_ZN3c1021AutogradMetaInterfaceD2Ev@plt>:
    9620:	ff 25 d2 ac 05 00    	jmp    *0x5acd2(%rip)        # 642f8 <_ZN3c1021AutogradMetaInterfaceD2Ev@Base>
    9626:	68 5f 00 00 00       	push   $0x5f
    962b:	e9 f0 f9 ff ff       	jmp    9020 <_init+0x20>

0000000000009630 <_ZN5torch4data8samplers13RandomSamplerD1Ev@plt>:
    9630:	ff 25 ca ac 05 00    	jmp    *0x5acca(%rip)        # 64300 <_ZN5torch4data8samplers13RandomSamplerD1Ev@Base>
    9636:	68 60 00 00 00       	push   $0x60
    963b:	e9 e0 f9 ff ff       	jmp    9020 <_init+0x20>

0000000000009640 <_ZSt17current_exceptionv@plt>:
    9640:	ff 25 c2 ac 05 00    	jmp    *0x5acc2(%rip)        # 64308 <_ZSt17current_exceptionv@CXXABI_1.3.3>
    9646:	68 61 00 00 00       	push   $0x61
    964b:	e9 d0 f9 ff ff       	jmp    9020 <_init+0x20>

0000000000009650 <_ZNKSt9basic_iosIcSt11char_traitsIcEEcvbEv@plt>:
    9650:	ff 25 ba ac 05 00    	jmp    *0x5acba(%rip)        # 64310 <_ZNKSt9basic_iosIcSt11char_traitsIcEEcvbEv@GLIBCXX_3.4.21>
    9656:	68 62 00 00 00       	push   $0x62
    965b:	e9 c0 f9 ff ff       	jmp    9020 <_init+0x20>

0000000000009660 <_ZNKSs4_Rep12_M_is_sharedEv@plt>:
    9660:	ff 25 b2 ac 05 00    	jmp    *0x5acb2(%rip)        # 64318 <_ZNKSs4_Rep12_M_is_sharedEv@GLIBCXX_3.4>
    9666:	68 63 00 00 00       	push   $0x63
    966b:	e9 b0 f9 ff ff       	jmp    9020 <_init+0x20>

0000000000009670 <__cxa_allocate_exception@plt>:
    9670:	ff 25 aa ac 05 00    	jmp    *0x5acaa(%rip)        # 64320 <__cxa_allocate_exception@CXXABI_1.3>
    9676:	68 64 00 00 00       	push   $0x64
    967b:	e9 a0 f9 ff ff       	jmp    9020 <_init+0x20>

0000000000009680 <_ZSt28__throw_bad_array_new_lengthv@plt>:
    9680:	ff 25 a2 ac 05 00    	jmp    *0x5aca2(%rip)        # 64328 <_ZSt28__throw_bad_array_new_lengthv@GLIBCXX_3.4.29>
    9686:	68 65 00 00 00       	push   $0x65
    968b:	e9 90 f9 ff ff       	jmp    9020 <_init+0x20>

0000000000009690 <_ZN3c1017get_default_dtypeEv@plt>:
    9690:	ff 25 9a ac 05 00    	jmp    *0x5ac9a(%rip)        # 64330 <_ZN3c1017get_default_dtypeEv@Base>
    9696:	68 66 00 00 00       	push   $0x66
    969b:	e9 80 f9 ff ff       	jmp    9020 <_init+0x20>

00000000000096a0 <_ZN5torch2nn10LinearImplC1ERKNS0_13LinearOptionsE@plt>:
    96a0:	ff 25 92 ac 05 00    	jmp    *0x5ac92(%rip)        # 64338 <_ZN5torch2nn10LinearImplC1ERKNS0_13LinearOptionsE@Base>
    96a6:	68 67 00 00 00       	push   $0x67
    96ab:	e9 70 f9 ff ff       	jmp    9020 <_init+0x20>

00000000000096b0 <_ZdlPvm@plt>:
    96b0:	ff 25 8a ac 05 00    	jmp    *0x5ac8a(%rip)        # 64340 <_ZdlPvm@Base>
    96b6:	68 68 00 00 00       	push   $0x68
    96bb:	e9 60 f9 ff ff       	jmp    9020 <_init+0x20>

00000000000096c0 <_ZNSsC1EOSs@plt>:
    96c0:	ff 25 82 ac 05 00    	jmp    *0x5ac82(%rip)        # 64348 <_ZNSsC1EOSs@GLIBCXX_3.4.14>
    96c6:	68 69 00 00 00       	push   $0x69
    96cb:	e9 50 f9 ff ff       	jmp    9020 <_init+0x20>

00000000000096d0 <_ZNSs6insertEmPKc@plt>:
    96d0:	ff 25 7a ac 05 00    	jmp    *0x5ac7a(%rip)        # 64350 <_ZNSs6insertEmPKc@GLIBCXX_3.4>
    96d6:	68 6a 00 00 00       	push   $0x6a
    96db:	e9 40 f9 ff ff       	jmp    9020 <_init+0x20>

00000000000096e0 <_ZN5torch5optim11AdamOptionsC1Ed@plt>:
    96e0:	ff 25 72 ac 05 00    	jmp    *0x5ac72(%rip)        # 64358 <_ZN5torch5optim11AdamOptionsC1Ed@Base>
    96e6:	68 6b 00 00 00       	push   $0x6b
    96eb:	e9 30 f9 ff ff       	jmp    9020 <_init+0x20>

00000000000096f0 <_ZN5torch5optim9Optimizer15add_param_groupERKNS0_19OptimizerParamGroupE@plt>:
    96f0:	ff 25 6a ac 05 00    	jmp    *0x5ac6a(%rip)        # 64360 <_ZN5torch5optim9Optimizer15add_param_groupERKNS0_19OptimizerParamGroupE@Base>
    96f6:	68 6c 00 00 00       	push   $0x6c
    96fb:	e9 20 f9 ff ff       	jmp    9020 <_init+0x20>

0000000000009700 <_ZN3c1010TensorImpl17set_autograd_metaESt10unique_ptrINS_21AutogradMetaInterfaceESt14default_deleteIS2_EE@plt>:
    9700:	ff 25 62 ac 05 00    	jmp    *0x5ac62(%rip)        # 64368 <_ZN3c1010TensorImpl17set_autograd_metaESt10unique_ptrINS_21AutogradMetaInterfaceESt14default_deleteIS2_EE@Base>
    9706:	68 6d 00 00 00       	push   $0x6d
    970b:	e9 10 f9 ff ff       	jmp    9020 <_init+0x20>

0000000000009710 <_ZN2at4_ops5stack4callEN3c108ArrayRefINS_6TensorEEEl@plt>:
    9710:	ff 25 5a ac 05 00    	jmp    *0x5ac5a(%rip)        # 64370 <_ZN2at4_ops5stack4callEN3c108ArrayRefINS_6TensorEEEl@Base>
    9716:	68 6e 00 00 00       	push   $0x6e
    971b:	e9 00 f9 ff ff       	jmp    9020 <_init+0x20>

0000000000009720 <_ZStlsISt11char_traitsIcEERSt13basic_ostreamIcT_ES5_PKc@plt>:
    9720:	ff 25 52 ac 05 00    	jmp    *0x5ac52(%rip)        # 64378 <_ZStlsISt11char_traitsIcEERSt13basic_ostreamIcT_ES5_PKc@GLIBCXX_3.4>
    9726:	68 6f 00 00 00       	push   $0x6f
    972b:	e9 f0 f8 ff ff       	jmp    9020 <_init+0x20>

0000000000009730 <_ZNSt18condition_variable10notify_oneEv@plt>:
    9730:	ff 25 4a ac 05 00    	jmp    *0x5ac4a(%rip)        # 64380 <_ZNSt18condition_variable10notify_oneEv@GLIBCXX_3.4.11>
    9736:	68 70 00 00 00       	push   $0x70
    973b:	e9 e0 f8 ff ff       	jmp    9020 <_init+0x20>

0000000000009740 <_ZNKSs6_M_repEv@plt>:
    9740:	ff 25 42 ac 05 00    	jmp    *0x5ac42(%rip)        # 64388 <_ZNKSs6_M_repEv@GLIBCXX_3.4>
    9746:	68 71 00 00 00       	push   $0x71
    974b:	e9 d0 f8 ff ff       	jmp    9020 <_init+0x20>

0000000000009750 <_ZNSt18condition_variable4waitERSt11unique_lockISt5mutexE@plt>:
    9750:	ff 25 3a ac 05 00    	jmp    *0x5ac3a(%rip)        # 64390 <_ZNSt18condition_variable4waitERSt11unique_lockISt5mutexE@GLIBCXX_3.4.30>
    9756:	68 72 00 00 00       	push   $0x72
    975b:	e9 c0 f8 ff ff       	jmp    9020 <_init+0x20>

0000000000009760 <_ZNSt18condition_variableD1Ev@plt>:
    9760:	ff 25 32 ac 05 00    	jmp    *0x5ac32(%rip)        # 64398 <_ZNSt18condition_variableD1Ev@GLIBCXX_3.4.11>
    9766:	68 73 00 00 00       	push   $0x73
    976b:	e9 b0 f8 ff ff       	jmp    9020 <_init+0x20>

0000000000009770 <_ZNSspLEPKc@plt>:
    9770:	ff 25 2a ac 05 00    	jmp    *0x5ac2a(%rip)        # 643a0 <_ZNSspLEPKc@GLIBCXX_3.4>
    9776:	68 74 00 00 00       	push   $0x74
    977b:	e9 a0 f8 ff ff       	jmp    9020 <_init+0x20>

0000000000009780 <_ZNSs4_Rep10_M_refdataEv@plt>:
    9780:	ff 25 22 ac 05 00    	jmp    *0x5ac22(%rip)        # 643a8 <_ZNSs4_Rep10_M_refdataEv@GLIBCXX_3.4>
    9786:	68 75 00 00 00       	push   $0x75
    978b:	e9 90 f8 ff ff       	jmp    9020 <_init+0x20>

0000000000009790 <_ZNSs4_Rep9_S_createEmmRKSaIcE@plt>:
    9790:	ff 25 1a ac 05 00    	jmp    *0x5ac1a(%rip)        # 643b0 <_ZNSs4_Rep9_S_createEmmRKSaIcE@GLIBCXX_3.4>
    9796:	68 76 00 00 00       	push   $0x76
    979b:	e9 80 f8 ff ff       	jmp    9020 <_init+0x20>

00000000000097a0 <_ZN5torch4data8samplers13RandomSamplerC1ElN3c1010ScalarTypeE@plt>:
    97a0:	ff 25 12 ac 05 00    	jmp    *0x5ac12(%rip)        # 643b8 <_ZN5torch4data8samplers13RandomSamplerC1ElN3c1010ScalarTypeE@Base>
    97a6:	68 77 00 00 00       	push   $0x77
    97ab:	e9 70 f8 ff ff       	jmp    9020 <_init+0x20>

00000000000097b0 <__cxa_end_catch@plt>:
    97b0:	ff 25 0a ac 05 00    	jmp    *0x5ac0a(%rip)        # 643c0 <__cxa_end_catch@CXXABI_1.3>
    97b6:	68 78 00 00 00       	push   $0x78
    97bb:	e9 60 f8 ff ff       	jmp    9020 <_init+0x20>

00000000000097c0 <_ZNKSs6lengthEv@plt>:
    97c0:	ff 25 02 ac 05 00    	jmp    *0x5ac02(%rip)        # 643c8 <_ZNKSs6lengthEv@GLIBCXX_3.4>
    97c6:	68 79 00 00 00       	push   $0x79
    97cb:	e9 50 f8 ff ff       	jmp    9020 <_init+0x20>

00000000000097d0 <strcmp@plt>:
    97d0:	ff 25 fa ab 05 00    	jmp    *0x5abfa(%rip)        # 643d0 <strcmp@GLIBC_2.2.5>
    97d6:	68 7a 00 00 00       	push   $0x7a
    97db:	e9 40 f8 ff ff       	jmp    9020 <_init+0x20>

00000000000097e0 <__cxa_rethrow@plt>:
    97e0:	ff 25 f2 ab 05 00    	jmp    *0x5abf2(%rip)        # 643d8 <__cxa_rethrow@CXXABI_1.3>
    97e6:	68 7b 00 00 00       	push   $0x7b
    97eb:	e9 30 f8 ff ff       	jmp    9020 <_init+0x20>

00000000000097f0 <_ZNSs4_Rep26_M_set_length_and_sharableEm@plt>:
    97f0:	ff 25 ea ab 05 00    	jmp    *0x5abea(%rip)        # 643e0 <_ZNSs4_Rep26_M_set_length_and_sharableEm@GLIBCXX_3.4.5>
    97f6:	68 7c 00 00 00       	push   $0x7c
    97fb:	e9 20 f8 ff ff       	jmp    9020 <_init+0x20>

0000000000009800 <__cxa_free_exception@plt>:
    9800:	ff 25 e2 ab 05 00    	jmp    *0x5abe2(%rip)        # 643e8 <__cxa_free_exception@CXXABI_1.3>
    9806:	68 7d 00 00 00       	push   $0x7d
    980b:	e9 10 f8 ff ff       	jmp    9020 <_init+0x20>

0000000000009810 <_ZN5torch4data8samplers13RandomSampler4nextEm@plt>:
    9810:	ff 25 da ab 05 00    	jmp    *0x5abda(%rip)        # 643f0 <_ZN5torch4data8samplers13RandomSampler4nextEm@Base>
    9816:	68 7e 00 00 00       	push   $0x7e
    981b:	e9 00 f8 ff ff       	jmp    9020 <_init+0x20>

0000000000009820 <_ZN3c106detail14torchCheckFailEPKcS2_jRKSs@plt>:
    9820:	ff 25 d2 ab 05 00    	jmp    *0x5abd2(%rip)        # 643f8 <_ZN3c106detail14torchCheckFailEPKcS2_jRKSs@Base>
    9826:	68 7f 00 00 00       	push   $0x7f
    982b:	e9 f0 f7 ff ff       	jmp    9020 <_init+0x20>

0000000000009830 <_ZN2at4_ops10select_int4callERKNS_6TensorElN3c106SymIntE@plt>:
    9830:	ff 25 ca ab 05 00    	jmp    *0x5abca(%rip)        # 64400 <_ZN2at4_ops10select_int4callERKNS_6TensorElN3c106SymIntE@Base>
    9836:	68 80 00 00 00       	push   $0x80
    983b:	e9 e0 f7 ff ff       	jmp    9020 <_init+0x20>

0000000000009840 <_ZN2at4_ops4view4callERKNS_6TensorEN3c108ArrayRefINS5_6SymIntEEE@plt>:
    9840:	ff 25 c2 ab 05 00    	jmp    *0x5abc2(%rip)        # 64408 <_ZN2at4_ops4view4callERKNS_6TensorEN3c108ArrayRefINS5_6SymIntEEE@Base>
    9846:	68 81 00 00 00       	push   $0x81
    984b:	e9 d0 f7 ff ff       	jmp    9020 <_init+0x20>

0000000000009850 <__dynamic_cast@plt>:
    9850:	ff 25 ba ab 05 00    	jmp    *0x5abba(%rip)        # 64410 <__dynamic_cast@CXXABI_1.3>
    9856:	68 82 00 00 00       	push   $0x82
    985b:	e9 c0 f7 ff ff       	jmp    9020 <_init+0x20>

0000000000009860 <_ZNSolsEPFRSoS_E@plt>:
    9860:	ff 25 b2 ab 05 00    	jmp    *0x5abb2(%rip)        # 64418 <_ZNSolsEPFRSoS_E@GLIBCXX_3.4>
    9866:	68 83 00 00 00       	push   $0x83
    986b:	e9 b0 f7 ff ff       	jmp    9020 <_init+0x20>

0000000000009870 <_ZN2at4_ops6expand4callERKNS_6TensorEN3c108ArrayRefINS5_6SymIntEEEb@plt>:
    9870:	ff 25 aa ab 05 00    	jmp    *0x5abaa(%rip)        # 64420 <_ZN2at4_ops6expand4callERKNS_6TensorEN3c108ArrayRefINS5_6SymIntEEEb@Base>
    9876:	68 84 00 00 00       	push   $0x84
    987b:	e9 a0 f7 ff ff       	jmp    9020 <_init+0x20>

0000000000009880 <__errno_location@plt>:
    9880:	ff 25 a2 ab 05 00    	jmp    *0x5aba2(%rip)        # 64428 <__errno_location@GLIBC_2.2.5>
    9886:	68 85 00 00 00       	push   $0x85
    988b:	e9 90 f7 ff ff       	jmp    9020 <_init+0x20>

0000000000009890 <_ZNKSt8__detail20_Prime_rehash_policy14_M_need_rehashEmmm@plt>:
    9890:	ff 25 9a ab 05 00    	jmp    *0x5ab9a(%rip)        # 64430 <_ZNKSt8__detail20_Prime_rehash_policy14_M_need_rehashEmmm@GLIBCXX_3.4.18>
    9896:	68 86 00 00 00       	push   $0x86
    989b:	e9 80 f7 ff ff       	jmp    9020 <_init+0x20>

00000000000098a0 <_ZNSt6thread6_StateD2Ev@plt>:
    98a0:	ff 25 92 ab 05 00    	jmp    *0x5ab92(%rip)        # 64438 <_ZNSt6thread6_StateD2Ev@Base>
    98a6:	68 87 00 00 00       	push   $0x87
    98ab:	e9 70 f7 ff ff       	jmp    9020 <_init+0x20>

00000000000098b0 <_ZNK2at6Tensor9_backwardEN3c108ArrayRefIS0_EERKSt8optionalIS0_ES4_IbEb@plt>:
    98b0:	ff 25 8a ab 05 00    	jmp    *0x5ab8a(%rip)        # 64440 <_ZNK2at6Tensor9_backwardEN3c108ArrayRefIS0_EERKSt8optionalIS0_ES4_IbEb@Base>
    98b6:	68 88 00 00 00       	push   $0x88
    98bb:	e9 60 f7 ff ff       	jmp    9020 <_init+0x20>

00000000000098c0 <_ZNKSs5c_strEv@plt>:
    98c0:	ff 25 82 ab 05 00    	jmp    *0x5ab82(%rip)        # 64448 <_ZNKSs5c_strEv@GLIBCXX_3.4>
    98c6:	68 89 00 00 00       	push   $0x89
    98cb:	e9 50 f7 ff ff       	jmp    9020 <_init+0x20>

00000000000098d0 <_ZN3c104impl23ExcludeDispatchKeyGuardD1Ev@plt>:
    98d0:	ff 25 7a ab 05 00    	jmp    *0x5ab7a(%rip)        # 64450 <_ZN3c104impl23ExcludeDispatchKeyGuardD1Ev@Base>
    98d6:	68 8a 00 00 00       	push   $0x8a
    98db:	e9 40 f7 ff ff       	jmp    9020 <_init+0x20>

00000000000098e0 <_ZSt9terminatev@plt>:
    98e0:	ff 25 72 ab 05 00    	jmp    *0x5ab72(%rip)        # 64458 <_ZSt9terminatev@GLIBCXX_3.4>
    98e6:	68 8b 00 00 00       	push   $0x8b
    98eb:	e9 30 f7 ff ff       	jmp    9020 <_init+0x20>

00000000000098f0 <_ZN5torch5optim4Adam4stepESt8functionIFN2at6TensorEvEE@plt>:
    98f0:	ff 25 6a ab 05 00    	jmp    *0x5ab6a(%rip)        # 64460 <_ZN5torch5optim4Adam4stepESt8functionIFN2at6TensorEvEE@Base>
    98f6:	68 8c 00 00 00       	push   $0x8c
    98fb:	e9 20 f7 ff ff       	jmp    9020 <_init+0x20>

0000000000009900 <_ZNSsD1Ev@plt>:
    9900:	ff 25 62 ab 05 00    	jmp    *0x5ab62(%rip)        # 64468 <_ZNSsD1Ev@GLIBCXX_3.4>
    9906:	68 8d 00 00 00       	push   $0x8d
    990b:	e9 10 f7 ff ff       	jmp    9020 <_init+0x20>

Disassembly of section .text:

0000000000009910 <_start>:
    9910:	f3 0f 1e fa          	endbr64
    9914:	31 ed                	xor    %ebp,%ebp
    9916:	49 89 d1             	mov    %rdx,%r9
    9919:	5e                   	pop    %rsi
    991a:	48 89 e2             	mov    %rsp,%rdx
    991d:	48 83 e4 f0          	and    $0xfffffffffffffff0,%rsp
    9921:	50                   	push   %rax
    9922:	54                   	push   %rsp
    9923:	45 31 c0             	xor    %r8d,%r8d
    9926:	31 c9                	xor    %ecx,%ecx
    9928:	48 8d 3d c5 01 00 00 	lea    0x1c5(%rip),%rdi        # 9af4 <main>
    992f:	ff 15 4b a6 05 00    	call   *0x5a64b(%rip)        # 63f80 <__libc_start_main@GLIBC_2.34>
    9935:	f4                   	hlt
    9936:	66 2e 0f 1f 84 00 00 	cs nopw 0x0(%rax,%rax,1)
    993d:	00 00 00 
    9940:	48 8d 3d 49 ab 05 00 	lea    0x5ab49(%rip),%rdi        # 64490 <__TMC_END__>
    9947:	48 8d 05 42 ab 05 00 	lea    0x5ab42(%rip),%rax        # 64490 <__TMC_END__>
    994e:	48 39 f8             	cmp    %rdi,%rax
    9951:	74 15                	je     9968 <_start+0x58>
    9953:	48 8b 05 2e a6 05 00 	mov    0x5a62e(%rip),%rax        # 63f88 <_ITM_deregisterTMCloneTable@Base>
    995a:	48 85 c0             	test   %rax,%rax
    995d:	74 09                	je     9968 <_start+0x58>
    995f:	ff e0                	jmp    *%rax
    9961:	0f 1f 80 00 00 00 00 	nopl   0x0(%rax)
    9968:	c3                   	ret
    9969:	0f 1f 80 00 00 00 00 	nopl   0x0(%rax)
    9970:	48 8d 3d 19 ab 05 00 	lea    0x5ab19(%rip),%rdi        # 64490 <__TMC_END__>
    9977:	48 8d 35 12 ab 05 00 	lea    0x5ab12(%rip),%rsi        # 64490 <__TMC_END__>
    997e:	48 29 fe             	sub    %rdi,%rsi
    9981:	48 89 f0             	mov    %rsi,%rax
    9984:	48 c1 ee 3f          	shr    $0x3f,%rsi
    9988:	48 c1 f8 03          	sar    $0x3,%rax
    998c:	48 01 c6             	add    %rax,%rsi
    998f:	48 d1 fe             	sar    $1,%rsi
    9992:	74 14                	je     99a8 <_start+0x98>
    9994:	48 8b 05 d5 a5 05 00 	mov    0x5a5d5(%rip),%rax        # 63f70 <_ITM_registerTMCloneTable@Base>
    999b:	48 85 c0             	test   %rax,%rax
    999e:	74 08                	je     99a8 <_start+0x98>
    99a0:	ff e0                	jmp    *%rax
    99a2:	66 0f 1f 44 00 00    	nopw   0x0(%rax,%rax,1)
    99a8:	c3                   	ret
    99a9:	0f 1f 80 00 00 00 00 	nopl   0x0(%rax)
    99b0:	f3 0f 1e fa          	endbr64
    99b4:	80 3d e6 ac 05 00 00 	cmpb   $0x0,0x5ace6(%rip)        # 646a1 <__libc_single_threaded@GLIBC_2.32+0x1>
    99bb:	75 33                	jne    99f0 <_start+0xe0>
    99bd:	55                   	push   %rbp
    99be:	48 83 3d ca a5 05 00 	cmpq   $0x0,0x5a5ca(%rip)        # 63f90 <__cxa_finalize@GLIBC_2.2.5>
    99c5:	00 
    99c6:	48 89 e5             	mov    %rsp,%rbp
    99c9:	74 0d                	je     99d8 <_start+0xc8>
    99cb:	48 8b 3d a6 aa 05 00 	mov    0x5aaa6(%rip),%rdi        # 64478 <__dso_handle>
    99d2:	ff 15 b8 a5 05 00    	call   *0x5a5b8(%rip)        # 63f90 <__cxa_finalize@GLIBC_2.2.5>
    99d8:	e8 63 ff ff ff       	call   9940 <_start+0x30>
    99dd:	c6 05 bd ac 05 00 01 	movb   $0x1,0x5acbd(%rip)        # 646a1 <__libc_single_threaded@GLIBC_2.32+0x1>
    99e4:	5d                   	pop    %rbp
    99e5:	c3                   	ret
    99e6:	66 2e 0f 1f 84 00 00 	cs nopw 0x0(%rax,%rax,1)
    99ed:	00 00 00 
    99f0:	c3                   	ret
    99f1:	66 66 2e 0f 1f 84 00 	data16 cs nopw 0x0(%rax,%rax,1)
    99f8:	00 00 00 00 
    99fc:	0f 1f 40 00          	nopl   0x0(%rax)
    9a00:	f3 0f 1e fa          	endbr64
    9a04:	e9 67 ff ff ff       	jmp    9970 <_start+0x60>

0000000000009a09 <_ZL18__gthread_active_pv>:
    9a09:	55                   	push   %rbp
    9a0a:	48 89 e5             	mov    %rsp,%rbp
    9a0d:	b8 01 00 00 00       	mov    $0x1,%eax
    9a12:	5d                   	pop    %rbp
    9a13:	c3                   	ret

0000000000009a14 <_ZN3c10L13isComplexTypeENS_10ScalarTypeE>:
    9a14:	55                   	push   %rbp
    9a15:	48 89 e5             	mov    %rsp,%rbp
    9a18:	89 f8                	mov    %edi,%eax
    9a1a:	88 45 fc             	mov    %al,-0x4(%rbp)
    9a1d:	80 7d fc 08          	cmpb   $0x8,-0x4(%rbp)
    9a21:	74 0c                	je     9a2f <_ZN3c10L13isComplexTypeENS_10ScalarTypeE+0x1b>
    9a23:	80 7d fc 09          	cmpb   $0x9,-0x4(%rbp)
    9a27:	74 06                	je     9a2f <_ZN3c10L13isComplexTypeENS_10ScalarTypeE+0x1b>
    9a29:	80 7d fc 0a          	cmpb   $0xa,-0x4(%rbp)
    9a2d:	75 07                	jne    9a36 <_ZN3c10L13isComplexTypeENS_10ScalarTypeE+0x22>
    9a2f:	b8 01 00 00 00       	mov    $0x1,%eax
    9a34:	eb 05                	jmp    9a3b <_ZN3c10L13isComplexTypeENS_10ScalarTypeE+0x27>
    9a36:	b8 00 00 00 00       	mov    $0x0,%eax
    9a3b:	5d                   	pop    %rbp
    9a3c:	c3                   	ret

0000000000009a3d <_ZN3c10L20scalarTypeToTypeMetaENS_10ScalarTypeE>:
    9a3d:	55                   	push   %rbp
    9a3e:	48 89 e5             	mov    %rsp,%rbp
    9a41:	48 83 ec 10          	sub    $0x10,%rsp
    9a45:	89 f8                	mov    %edi,%eax
    9a47:	88 45 fc             	mov    %al,-0x4(%rbp)
    9a4a:	0f b6 45 fc          	movzbl -0x4(%rbp),%eax
    9a4e:	89 c7                	mov    %eax,%edi
    9a50:	e8 52 2e 00 00       	call   c8a7 <_ZN6caffe28TypeMeta14fromScalarTypeEN3c1010ScalarTypeE>
    9a55:	c9                   	leave
    9a56:	c3                   	ret

0000000000009a57 <_ZN3c10L20typeMetaToScalarTypeEN6caffe28TypeMetaE>:
    9a57:	55                   	push   %rbp
    9a58:	48 89 e5             	mov    %rsp,%rbp
    9a5b:	48 83 ec 10          	sub    $0x10,%rsp
    9a5f:	66 89 7d fe          	mov    %di,-0x2(%rbp)
    9a63:	48 8d 45 fe          	lea    -0x2(%rbp),%rax
    9a67:	48 89 c7             	mov    %rax,%rdi
    9a6a:	e8 31 2f 00 00       	call   c9a0 <_ZN6caffe28TypeMeta12toScalarTypeEv>
    9a6f:	c9                   	leave
    9a70:	c3                   	ret

0000000000009a71 <_ZN3c10L23optTypeMetaToScalarTypeESt8optionalIN6caffe28TypeMetaEE>:
    9a71:	55                   	push   %rbp
    9a72:	48 89 e5             	mov    %rsp,%rbp
    9a75:	48 83 ec 20          	sub    $0x20,%rsp
    9a79:	89 7d e8             	mov    %edi,-0x18(%rbp)
    9a7c:	64 48 8b 04 25 28 00 	mov    %fs:0x28,%rax
    9a83:	00 00 
    9a85:	48 89 45 f8          	mov    %rax,-0x8(%rbp)
    9a89:	31 c0                	xor    %eax,%eax
    9a8b:	48 8d 45 e8          	lea    -0x18(%rbp),%rax
    9a8f:	48 89 c7             	mov    %rax,%rdi
    9a92:	e8 53 2f 00 00       	call   c9ea <_ZNKSt8optionalIN6caffe28TypeMetaEE9has_valueEv>
    9a97:	83 f0 01             	xor    $0x1,%eax
    9a9a:	84 c0                	test   %al,%al
    9a9c:	74 12                	je     9ab0 <_ZN3c10L23optTypeMetaToScalarTypeESt8optionalIN6caffe28TypeMetaEE+0x3f>
    9a9e:	48 8d 45 f6          	lea    -0xa(%rbp),%rax
    9aa2:	48 89 c7             	mov    %rax,%rdi
    9aa5:	e8 2c d2 00 00       	call   16cd6 <_ZNSt8optionalIN3c1010ScalarTypeEEC1ESt9nullopt_t>
    9aaa:	0f b7 45 f6          	movzwl -0xa(%rbp),%eax
    9aae:	eb 2e                	jmp    9ade <_ZN3c10L23optTypeMetaToScalarTypeESt8optionalIN6caffe28TypeMetaEE+0x6d>
    9ab0:	48 8d 45 e8          	lea    -0x18(%rbp),%rax
    9ab4:	48 89 c7             	mov    %rax,%rdi
    9ab7:	e8 36 d2 00 00       	call   16cf2 <_ZNSt8optionalIN6caffe28TypeMetaEEptEv>
    9abc:	48 89 c7             	mov    %rax,%rdi
    9abf:	e8 dc 2e 00 00       	call   c9a0 <_ZN6caffe28TypeMeta12toScalarTypeEv>
    9ac4:	88 45 f5             	mov    %al,-0xb(%rbp)
    9ac7:	48 8d 55 f5          	lea    -0xb(%rbp),%rdx
    9acb:	48 8d 45 f6          	lea    -0xa(%rbp),%rax
    9acf:	48 89 d6             	mov    %rdx,%rsi
    9ad2:	48 89 c7             	mov    %rax,%rdi
    9ad5:	e8 3a d2 00 00       	call   16d14 <_ZNSt8optionalIN3c1010ScalarTypeEEC1IS1_Lb1EEEOT_>
    9ada:	0f b7 45 f6          	movzwl -0xa(%rbp),%eax
    9ade:	48 8b 55 f8          	mov    -0x8(%rbp),%rdx
    9ae2:	64 48 2b 14 25 28 00 	sub    %fs:0x28,%rdx
    9ae9:	00 00 
    9aeb:	74 05                	je     9af2 <_ZN3c10L23optTypeMetaToScalarTypeESt8optionalIN6caffe28TypeMetaEE+0x81>
    9aed:	e8 0e f6 ff ff       	call   9100 <__stack_chk_fail@plt>
    9af2:	c9                   	leave
    9af3:	c3                   	ret

0000000000009af4 <main>:
    9af4:	55                   	push   %rbp
    9af5:	48 89 e5             	mov    %rsp,%rbp
    9af8:	53                   	push   %rbx
    9af9:	48 81 ec b8 01 00 00 	sub    $0x1b8,%rsp
    9b00:	64 48 8b 04 25 28 00 	mov    %fs:0x28,%rax
    9b07:	00 00 
    9b09:	48 89 45 e8          	mov    %rax,-0x18(%rbp)
    9b0d:	31 c0                	xor    %eax,%eax
    9b0f:	48 8d 85 b0 fe ff ff 	lea    -0x150(%rbp),%rax
    9b16:	48 89 85 88 fe ff ff 	mov    %rax,-0x178(%rbp)
    9b1d:	90                   	nop
    9b1e:	90                   	nop
    9b1f:	48 8d 95 b0 fe ff ff 	lea    -0x150(%rbp),%rdx
    9b26:	48 8d 85 c0 fe ff ff 	lea    -0x140(%rbp),%rax
    9b2d:	48 8d 0d 54 89 03 00 	lea    0x38954(%rip),%rcx        # 42488 <_ZN5torch8profiler4implL32TENSOR_LIST_DISPLAY_LENGTH_LIMITE+0x5e4>
    9b34:	48 89 ce             	mov    %rcx,%rsi
    9b37:	48 89 c7             	mov    %rax,%rdi
    9b3a:	e8 9f c8 00 00       	call   163de <_ZNSsC1ISaIcEEEPKcRKS0_>
    9b3f:	48 8d 95 c0 fe ff ff 	lea    -0x140(%rbp),%rdx
    9b46:	48 8d 85 70 ff ff ff 	lea    -0x90(%rbp),%rax
    9b4d:	48 89 d6             	mov    %rdx,%rsi
    9b50:	48 89 c7             	mov    %rax,%rdi
    9b53:	e8 ae b6 00 00       	call   15206 <_ZN10CSVDatasetC1ERKSs>
    9b58:	48 c7 85 e0 fe ff ff 	movq   $0x0,-0x120(%rbp)
    9b5f:	00 00 00 00 
    9b63:	48 8d 85 e0 fe ff ff 	lea    -0x120(%rbp),%rax
    9b6a:	48 89 c7             	mov    %rax,%rdi
    9b6d:	e8 d6 bd 00 00       	call   15948 <_ZN5torch4data10transforms5StackINS0_7ExampleIN2at6TensorES5_EEEC1Ev>
    9b72:	48 8d 85 20 ff ff ff 	lea    -0xe0(%rbp),%rax
    9b79:	48 8d 95 e0 fe ff ff 	lea    -0x120(%rbp),%rdx
    9b80:	48 8d 8d 70 ff ff ff 	lea    -0x90(%rbp),%rcx
    9b87:	48 89 ce             	mov    %rcx,%rsi
    9b8a:	48 89 c7             	mov    %rax,%rdi
    9b8d:	e8 3e 25 01 00       	call   1c0d0 <_ZNO5torch4data8datasets12BatchDatasetI10CSVDatasetSt6vectorINS0_7ExampleIN2at6TensorES7_EESaIS8_EEN3c108ArrayRefImEEE3mapINS0_10transforms5StackIS8_EEEENS1_10MapDatasetIS3_T_EESK_>
    9b92:	48 8d 85 e0 fe ff ff 	lea    -0x120(%rbp),%rax
    9b99:	48 89 c7             	mov    %rax,%rdi
    9b9c:	e8 d1 bd 00 00       	call   15972 <_ZN5torch4data10transforms5StackINS0_7ExampleIN2at6TensorES5_EEED1Ev>
    9ba1:	48 8d 85 70 ff ff ff 	lea    -0x90(%rbp),%rax
    9ba8:	48 89 c7             	mov    %rax,%rdi
    9bab:	e8 c2 bc 00 00       	call   15872 <_ZN10CSVDatasetD1Ev>
    9bb0:	48 8d 85 c0 fe ff ff 	lea    -0x140(%rbp),%rax
    9bb7:	48 89 c7             	mov    %rax,%rdi
    9bba:	e8 41 fd ff ff       	call   9900 <_ZNSsD1Ev@plt>
    9bbf:	48 8d 85 b0 fe ff ff 	lea    -0x150(%rbp),%rax
    9bc6:	48 89 c7             	mov    %rax,%rdi
    9bc9:	e8 0c 2d 01 00       	call   1c8da <_ZNSt15__new_allocatorIcED1Ev>
    9bce:	90                   	nop
    9bcf:	48 8d 85 e0 fe ff ff 	lea    -0x120(%rbp),%rax
    9bd6:	be 00 20 00 00       	mov    $0x2000,%esi
    9bdb:	48 89 c7             	mov    %rax,%rdi
    9bde:	e8 51 83 00 00       	call   11f34 <_ZN5torch4data17DataLoaderOptionsC1Em>
    9be3:	48 8d 85 20 ff ff ff 	lea    -0xe0(%rbp),%rax
    9bea:	48 89 c7             	mov    %rax,%rdi
    9bed:	e8 c9 25 01 00       	call   1c1bb <_ZSt4moveIRN5torch4data8datasets10MapDatasetI10CSVDatasetNS1_10transforms5StackINS1_7ExampleIN2at6TensorES9_EEEEEEEONSt16remove_referenceIT_E4typeEOSF_>
    9bf2:	48 89 c2             	mov    %rax,%rdx
    9bf5:	48 8d 85 70 ff ff ff 	lea    -0x90(%rbp),%rax
    9bfc:	48 89 d6             	mov    %rdx,%rsi
    9bff:	48 89 c7             	mov    %rax,%rdi
    9c02:	e8 a9 bf 00 00       	call   15bb0 <_ZN5torch4data8datasets10MapDatasetI10CSVDatasetNS0_10transforms5StackINS0_7ExampleIN2at6TensorES8_EEEEEC1EOSB_>
    9c07:	48 8d 95 48 fe ff ff 	lea    -0x1b8(%rbp),%rdx
    9c0e:	48 8d b5 70 ff ff ff 	lea    -0x90(%rbp),%rsi
    9c15:	48 83 ec 08          	sub    $0x8,%rsp
    9c19:	48 83 ec 38          	sub    $0x38,%rsp
    9c1d:	48 89 e0             	mov    %rsp,%rax
    9c20:	48 8b 8d e0 fe ff ff 	mov    -0x120(%rbp),%rcx
    9c27:	48 8b 9d e8 fe ff ff 	mov    -0x118(%rbp),%rbx
    9c2e:	48 89 08             	mov    %rcx,(%rax)
    9c31:	48 89 58 08          	mov    %rbx,0x8(%rax)
    9c35:	48 8b 8d f0 fe ff ff 	mov    -0x110(%rbp),%rcx
    9c3c:	48 8b 9d f8 fe ff ff 	mov    -0x108(%rbp),%rbx
    9c43:	48 89 48 10          	mov    %rcx,0x10(%rax)
    9c47:	48 89 58 18          	mov    %rbx,0x18(%rax)
    9c4b:	48 8b 8d 00 ff ff ff 	mov    -0x100(%rbp),%rcx
    9c52:	48 8b 9d 08 ff ff ff 	mov    -0xf8(%rbp),%rbx
    9c59:	48 89 48 20          	mov    %rcx,0x20(%rax)
    9c5d:	48 89 58 28          	mov    %rbx,0x28(%rax)
    9c61:	48 8b 8d 10 ff ff ff 	mov    -0xf0(%rbp),%rcx
    9c68:	48 89 48 30          	mov    %rcx,0x30(%rax)
    9c6c:	48 89 d7             	mov    %rdx,%rdi
    9c6f:	e8 55 25 01 00       	call   1c1c9 <_ZN5torch4data16make_data_loaderINS0_8samplers13RandomSamplerENS0_8datasets10MapDatasetI10CSVDatasetNS0_10transforms5StackINS0_7ExampleIN2at6TensorESB_EEEEEEEENSt9enable_ifIXntoosrT0_11is_statefulntsrSt16is_constructibleIT_JmEE5valueESt10unique_ptrINS0_19StatelessDataLoaderISG_SI_EESt14default_deleteISM_EEE4typeESG_NS0_17DataLoaderOptionsE>
    9c74:	48 83 c4 40          	add    $0x40,%rsp
    9c78:	48 8d 85 70 ff ff ff 	lea    -0x90(%rbp),%rax
    9c7f:	48 89 c7             	mov    %rax,%rdi
    9c82:	e8 87 bd 00 00       	call   15a0e <_ZN5torch4data8datasets10MapDatasetI10CSVDatasetNS0_10transforms5StackINS0_7ExampleIN2at6TensorES8_EEEEED1Ev>
    9c87:	48 8d 85 90 fe ff ff 	lea    -0x170(%rbp),%rax
    9c8e:	48 89 c7             	mov    %rax,%rdi
    9c91:	e8 76 27 01 00       	call   1c40c <_ZSt11make_sharedI3NetJEESt10shared_ptrINSt9enable_ifIXntsrSt8is_arrayIT_E5valueES4_E4typeEEDpOT0_>
    9c96:	48 8b 15 1b a2 03 00 	mov    0x3a21b(%rip),%rdx        # 43eb8 <C.0.0+0x28>
    9c9d:	48 8d 85 e0 fe ff ff 	lea    -0x120(%rbp),%rax
    9ca4:	66 48 0f 6e c2       	movq   %rdx,%xmm0
    9ca9:	48 89 c7             	mov    %rax,%rdi
    9cac:	e8 2f fa ff ff       	call   96e0 <_ZN5torch5optim11AdamOptionsC1Ed@plt>
    9cb1:	48 8d 85 90 fe ff ff 	lea    -0x170(%rbp),%rax
    9cb8:	48 89 c7             	mov    %rax,%rdi
    9cbb:	e8 98 27 01 00       	call   1c458 <_ZNKSt19__shared_ptr_accessI3NetLN9__gnu_cxx12_Lock_policyE2ELb0ELb0EEptEv>
    9cc0:	48 89 c1             	mov    %rax,%rcx
    9cc3:	48 8d 85 c0 fe ff ff 	lea    -0x140(%rbp),%rax
    9cca:	ba 01 00 00 00       	mov    $0x1,%edx
    9ccf:	48 89 ce             	mov    %rcx,%rsi
    9cd2:	48 89 c7             	mov    %rax,%rdi
    9cd5:	e8 76 f7 ff ff       	call   9450 <_ZNK5torch2nn6Module10parametersEb@plt>
    9cda:	48 8d 95 e0 fe ff ff 	lea    -0x120(%rbp),%rdx
    9ce1:	48 8d 8d c0 fe ff ff 	lea    -0x140(%rbp),%rcx
    9ce8:	48 8d 85 70 ff ff ff 	lea    -0x90(%rbp),%rax
    9cef:	48 89 ce             	mov    %rcx,%rsi
    9cf2:	48 89 c7             	mov    %rax,%rdi
    9cf5:	e8 06 a9 00 00       	call   14600 <_ZN5torch5optim4AdamC1ESt6vectorIN2at6TensorESaIS4_EENS0_11AdamOptionsE>
    9cfa:	48 8d 85 c0 fe ff ff 	lea    -0x140(%rbp),%rax
    9d01:	48 89 c7             	mov    %rax,%rdi
    9d04:	e8 83 df 00 00       	call   17c8c <_ZNSt6vectorIN2at6TensorESaIS1_EED1Ev>
    9d09:	48 8d 85 e0 fe ff ff 	lea    -0x120(%rbp),%rax
    9d10:	48 89 c7             	mov    %rax,%rdi
    9d13:	e8 3c a8 00 00       	call   14554 <_ZN5torch5optim11AdamOptionsD1Ev>
    9d18:	48 c7 85 68 fe ff ff 	movq   $0x1,-0x198(%rbp)
    9d1f:	01 00 00 00 
    9d23:	e9 97 03 00 00       	jmp    a0bf <main+0x5cb>
    9d28:	48 c7 85 70 fe ff ff 	movq   $0x0,-0x190(%rbp)
    9d2f:	00 00 00 00 
    9d33:	48 8d 85 48 fe ff ff 	lea    -0x1b8(%rbp),%rax
    9d3a:	48 89 c7             	mov    %rax,%rdi
    9d3d:	e8 30 27 01 00       	call   1c472 <_ZNKSt10unique_ptrIN5torch4data19StatelessDataLoaderINS1_8datasets10MapDatasetI10CSVDatasetNS1_10transforms5StackINS1_7ExampleIN2at6TensorESA_EEEEEENS1_8samplers13RandomSamplerEEESt14default_deleteISG_EEdeEv>
    9d42:	48 89 85 78 fe ff ff 	mov    %rax,-0x188(%rbp)
    9d49:	48 8b 95 78 fe ff ff 	mov    -0x188(%rbp),%rdx
    9d50:	48 8d 85 a0 fe ff ff 	lea    -0x160(%rbp),%rax
    9d57:	48 89 d6             	mov    %rdx,%rsi
    9d5a:	48 89 c7             	mov    %rax,%rdi
    9d5d:	e8 d8 27 01 00       	call   1c53a <_ZN5torch4data14DataLoaderBaseINS0_8datasets10MapDatasetI10CSVDatasetNS0_10transforms5StackINS0_7ExampleIN2at6TensorES9_EEEEEESA_St6vectorImSaImEEE5beginEv>
    9d62:	48 8b 95 78 fe ff ff 	mov    -0x188(%rbp),%rdx
    9d69:	48 8d 85 b0 fe ff ff 	lea    -0x150(%rbp),%rax
    9d70:	48 89 d6             	mov    %rdx,%rsi
    9d73:	48 89 c7             	mov    %rax,%rdi
    9d76:	e8 1d 29 01 00       	call   1c698 <_ZN5torch4data14DataLoaderBaseINS0_8datasets10MapDatasetI10CSVDatasetNS0_10transforms5StackINS0_7ExampleIN2at6TensorES9_EEEEEESA_St6vectorImSaImEEE3endEv>
    9d7b:	e9 f8 02 00 00       	jmp    a078 <main+0x584>
    9d80:	48 8d 85 a0 fe ff ff 	lea    -0x160(%rbp),%rax
    9d87:	48 89 c7             	mov    %rax,%rdi
    9d8a:	e8 25 2a 01 00       	call   1c7b4 <_ZN5torch4data8IteratorINS0_7ExampleIN2at6TensorES4_EEEdeEv>
    9d8f:	48 89 85 80 fe ff ff 	mov    %rax,-0x180(%rbp)
    9d96:	48 8d 85 70 ff ff ff 	lea    -0x90(%rbp),%rax
    9d9d:	be 01 00 00 00       	mov    $0x1,%esi
    9da2:	48 89 c7             	mov    %rax,%rdi
    9da5:	e8 96 f7 ff ff       	call   9540 <_ZN5torch5optim9Optimizer9zero_gradEb@plt>
    9daa:	48 8d 85 90 fe ff ff 	lea    -0x170(%rbp),%rax
    9db1:	48 89 c7             	mov    %rax,%rdi
    9db4:	e8 9f 26 01 00       	call   1c458 <_ZNKSt19__shared_ptr_accessI3NetLN9__gnu_cxx12_Lock_policyE2ELb0ELb0EEptEv>
    9db9:	48 89 c3             	mov    %rax,%rbx
    9dbc:	48 8b 95 80 fe ff ff 	mov    -0x180(%rbp),%rdx
    9dc3:	48 8d 85 e0 fe ff ff 	lea    -0x120(%rbp),%rax
    9dca:	48 89 d6             	mov    %rdx,%rsi
    9dcd:	48 89 c7             	mov    %rax,%rdi
    9dd0:	e8 09 3f 00 00       	call   dcde <_ZN2at6TensorC1ERKS0_>
    9dd5:	48 8d 85 50 fe ff ff 	lea    -0x1b0(%rbp),%rax
    9ddc:	48 8d 95 e0 fe ff ff 	lea    -0x120(%rbp),%rdx
    9de3:	48 89 de             	mov    %rbx,%rsi
    9de6:	48 89 c7             	mov    %rax,%rdi
    9de9:	e8 50 b0 00 00       	call   14e3e <_ZN3Net7forwardEN2at6TensorE>
    9dee:	48 8d 85 e0 fe ff ff 	lea    -0x120(%rbp),%rax
    9df5:	48 89 c7             	mov    %rax,%rdi
    9df8:	e8 c5 3e 00 00       	call   dcc2 <_ZN2at6TensorD1Ev>
    9dfd:	48 8b 85 80 fe ff ff 	mov    -0x180(%rbp),%rax
    9e04:	48 8d 58 08          	lea    0x8(%rax),%rbx
    9e08:	48 8d 05 81 a0 03 00 	lea    0x3a081(%rip),%rax        # 43e90 <C.0.0>
    9e0f:	48 89 85 c0 fe ff ff 	mov    %rax,-0x140(%rbp)
    9e16:	48 c7 85 c8 fe ff ff 	movq   $0x2,-0x138(%rbp)
    9e1d:	02 00 00 00 
    9e21:	48 8d 95 c0 fe ff ff 	lea    -0x140(%rbp),%rdx
    9e28:	48 8d 85 e0 fe ff ff 	lea    -0x120(%rbp),%rax
    9e2f:	48 89 d6             	mov    %rdx,%rsi
    9e32:	48 89 c7             	mov    %rax,%rdi
    9e35:	e8 52 d5 00 00       	call   1738c <_ZN3c108ArrayRefIlEC1ERKSt16initializer_listIlE>
    9e3a:	48 8d bd 58 fe ff ff 	lea    -0x1a8(%rbp),%rdi
    9e41:	48 8b 85 e0 fe ff ff 	mov    -0x120(%rbp),%rax
    9e48:	48 8b 95 e8 fe ff ff 	mov    -0x118(%rbp),%rdx
    9e4f:	48 89 d1             	mov    %rdx,%rcx
    9e52:	48 89 c2             	mov    %rax,%rdx
    9e55:	48 89 de             	mov    %rbx,%rsi
    9e58:	e8 45 44 00 00       	call   e2a2 <_ZNK2at6Tensor4viewEN3c108ArrayRefIlEE>
    9e5d:	48 c7 85 e0 fe ff ff 	movq   $0x0,-0x120(%rbp)
    9e64:	00 00 00 00 
    9e68:	c6 85 e9 fe ff ff 00 	movb   $0x0,-0x117(%rbp)
    9e6f:	48 8d 85 e0 fe ff ff 	lea    -0x120(%rbp),%rax
    9e76:	48 89 c7             	mov    %rax,%rdi
    9e79:	e8 30 be 00 00       	call   15cae <_ZN5torch2nn14BCELossOptionsC1Ev>
    9e7e:	48 8d 85 60 fe ff ff 	lea    -0x1a0(%rbp),%rax
    9e85:	48 8d 8d e0 fe ff ff 	lea    -0x120(%rbp),%rcx
    9e8c:	48 8d 95 58 fe ff ff 	lea    -0x1a8(%rbp),%rdx
    9e93:	48 8d b5 50 fe ff ff 	lea    -0x1b0(%rbp),%rsi
    9e9a:	48 89 c7             	mov    %rax,%rdi
    9e9d:	e8 f1 94 00 00       	call   13393 <_ZN5torch2nn10functional20binary_cross_entropyERKN2at6TensorES5_RKNS0_14BCELossOptionsE>
    9ea2:	48 8d 85 e0 fe ff ff 	lea    -0x120(%rbp),%rax
    9ea9:	48 89 c7             	mov    %rax,%rdi
    9eac:	e8 3d be 00 00       	call   15cee <_ZN5torch2nn14BCELossOptionsD1Ev>
    9eb1:	48 8d 85 e0 fe ff ff 	lea    -0x120(%rbp),%rax
    9eb8:	48 89 c7             	mov    %rax,%rdi
    9ebb:	e8 86 29 01 00       	call   1c846 <_ZNSt8optionalIN3c108ArrayRefIN2at6TensorEEEEC1ESt9nullopt_t>
    9ec0:	48 8d 85 46 fe ff ff 	lea    -0x1ba(%rbp),%rax
    9ec7:	48 89 c7             	mov    %rax,%rdi
    9eca:	e8 8f c9 00 00       	call   1685e <_ZNSt8optionalIbEC1ESt9nullopt_t>
    9ecf:	48 c7 85 c0 fe ff ff 	movq   $0x0,-0x140(%rbp)
    9ed6:	00 00 00 00 
    9eda:	48 8d 85 c0 fe ff ff 	lea    -0x140(%rbp),%rax
    9ee1:	48 89 c7             	mov    %rax,%rdi
    9ee4:	e8 3d 44 00 00       	call   e326 <_ZN2at6TensorC1Ev>
    9ee9:	44 0f b7 85 46 fe ff 	movzwl -0x1ba(%rbp),%r8d
    9ef0:	ff 
    9ef1:	48 8d b5 c0 fe ff ff 	lea    -0x140(%rbp),%rsi
    9ef8:	48 8d bd 60 fe ff ff 	lea    -0x1a0(%rbp),%rdi
    9eff:	48 83 ec 08          	sub    $0x8,%rsp
    9f03:	48 83 ec 18          	sub    $0x18,%rsp
    9f07:	48 89 e1             	mov    %rsp,%rcx
    9f0a:	48 8b 85 e0 fe ff ff 	mov    -0x120(%rbp),%rax
    9f11:	48 8b 95 e8 fe ff ff 	mov    -0x118(%rbp),%rdx
    9f18:	48 89 01             	mov    %rax,(%rcx)
    9f1b:	48 89 51 08          	mov    %rdx,0x8(%rcx)
    9f1f:	48 8b 85 f0 fe ff ff 	mov    -0x110(%rbp),%rax
    9f26:	48 89 41 10          	mov    %rax,0x10(%rcx)
    9f2a:	b9 00 00 00 00       	mov    $0x0,%ecx
    9f2f:	44 89 c2             	mov    %r8d,%edx
    9f32:	e8 35 3f 00 00       	call   de6c <_ZNK2at6Tensor8backwardERKS0_St8optionalIbEbS3_IN3c108ArrayRefIS0_EEE>
    9f37:	48 83 c4 20          	add    $0x20,%rsp
    9f3b:	48 8d 85 c0 fe ff ff 	lea    -0x140(%rbp),%rax
    9f42:	48 89 c7             	mov    %rax,%rdi
    9f45:	e8 78 3d 00 00       	call   dcc2 <_ZN2at6TensorD1Ev>
    9f4a:	48 8d 45 c0          	lea    -0x40(%rbp),%rax
    9f4e:	be 00 00 00 00       	mov    $0x0,%esi
    9f53:	48 89 c7             	mov    %rax,%rdi
    9f56:	e8 07 29 01 00       	call   1c862 <_ZNSt8functionIFN2at6TensorEvEEC1EDn>
    9f5b:	48 8d 85 e0 fe ff ff 	lea    -0x120(%rbp),%rax
    9f62:	48 8d 55 c0          	lea    -0x40(%rbp),%rdx
    9f66:	48 8d 8d 70 ff ff ff 	lea    -0x90(%rbp),%rcx
    9f6d:	48 89 ce             	mov    %rcx,%rsi
    9f70:	48 89 c7             	mov    %rax,%rdi
    9f73:	e8 78 f9 ff ff       	call   98f0 <_ZN5torch5optim4Adam4stepESt8functionIFN2at6TensorEvEE@plt>
    9f78:	48 8d 85 e0 fe ff ff 	lea    -0x120(%rbp),%rax
    9f7f:	48 89 c7             	mov    %rax,%rdi
    9f82:	e8 3b 3d 00 00       	call   dcc2 <_ZN2at6TensorD1Ev>
    9f87:	48 8d 45 c0          	lea    -0x40(%rbp),%rax
    9f8b:	48 89 c7             	mov    %rax,%rdi
    9f8e:	e8 77 bd 00 00       	call   15d0a <_ZNSt8functionIFN2at6TensorEvEED1Ev>
    9f93:	48 83 85 70 fe ff ff 	addq   $0x1,-0x190(%rbp)
    9f9a:	01 
    9f9b:	48 8d 05 38 85 03 00 	lea    0x38538(%rip),%rax        # 424da <_ZN5torch8profiler4implL32TENSOR_LIST_DISPLAY_LENGTH_LIMITE+0x636>
    9fa2:	48 89 c6             	mov    %rax,%rsi
    9fa5:	48 8d 05 d4 a5 05 00 	lea    0x5a5d4(%rip),%rax        # 64580 <_ZSt4cout@GLIBCXX_3.4>
    9fac:	48 89 c7             	mov    %rax,%rdi
    9faf:	e8 6c f7 ff ff       	call   9720 <_ZStlsISt11char_traitsIcEERSt13basic_ostreamIcT_ES5_PKc@plt>
    9fb4:	48 89 c2             	mov    %rax,%rdx
    9fb7:	48 8b 85 68 fe ff ff 	mov    -0x198(%rbp),%rax
    9fbe:	48 89 c6             	mov    %rax,%rsi
    9fc1:	48 89 d7             	mov    %rdx,%rdi
    9fc4:	e8 27 f4 ff ff       	call   93f0 <_ZNSolsEm@plt>
    9fc9:	48 89 c2             	mov    %rax,%rdx
    9fcc:	48 8d 05 0f 85 03 00 	lea    0x3850f(%rip),%rax        # 424e2 <_ZN5torch8profiler4implL32TENSOR_LIST_DISPLAY_LENGTH_LIMITE+0x63e>
    9fd3:	48 89 c6             	mov    %rax,%rsi
    9fd6:	48 89 d7             	mov    %rdx,%rdi
    9fd9:	e8 42 f7 ff ff       	call   9720 <_ZStlsISt11char_traitsIcEERSt13basic_ostreamIcT_ES5_PKc@plt>
    9fde:	48 89 c2             	mov    %rax,%rdx
    9fe1:	48 8b 85 70 fe ff ff 	mov    -0x190(%rbp),%rax
    9fe8:	48 89 c6             	mov    %rax,%rsi
    9feb:	48 89 d7             	mov    %rdx,%rdi
    9fee:	e8 fd f3 ff ff       	call   93f0 <_ZNSolsEm@plt>
    9ff3:	48 89 c2             	mov    %rax,%rdx
    9ff6:	48 8d 05 f0 84 03 00 	lea    0x384f0(%rip),%rax        # 424ed <_ZN5torch8profiler4implL32TENSOR_LIST_DISPLAY_LENGTH_LIMITE+0x649>
    9ffd:	48 89 c6             	mov    %rax,%rsi
    a000:	48 89 d7             	mov    %rdx,%rdi
    a003:	e8 18 f7 ff ff       	call   9720 <_ZStlsISt11char_traitsIcEERSt13basic_ostreamIcT_ES5_PKc@plt>
    a008:	48 89 c3             	mov    %rax,%rbx
    a00b:	48 8d 85 60 fe ff ff 	lea    -0x1a0(%rbp),%rax
    a012:	48 89 c7             	mov    %rax,%rdi
    a015:	e8 c6 f1 ff ff       	call   91e0 <_ZNK2at6Tensor4itemIfEET_v@plt>
    a01a:	66 0f 7e c0          	movd   %xmm0,%eax
    a01e:	66 0f 6e c0          	movd   %eax,%xmm0
    a022:	48 89 df             	mov    %rbx,%rdi
    a025:	e8 d6 f3 ff ff       	call   9400 <_ZNSolsEf@plt>
    a02a:	48 8b 15 47 9f 05 00 	mov    0x59f47(%rip),%rdx        # 63f78 <_ZSt4endlIcSt11char_traitsIcEERSt13basic_ostreamIT_T0_ES6_@GLIBCXX_3.4>
    a031:	48 89 d6             	mov    %rdx,%rsi
    a034:	48 89 c7             	mov    %rax,%rdi
    a037:	e8 24 f8 ff ff       	call   9860 <_ZNSolsEPFRSoS_E@plt>
    a03c:	48 8d 85 60 fe ff ff 	lea    -0x1a0(%rbp),%rax
    a043:	48 89 c7             	mov    %rax,%rdi
    a046:	e8 77 3c 00 00       	call   dcc2 <_ZN2at6TensorD1Ev>
    a04b:	48 8d 85 58 fe ff ff 	lea    -0x1a8(%rbp),%rax
    a052:	48 89 c7             	mov    %rax,%rdi
    a055:	e8 68 3c 00 00       	call   dcc2 <_ZN2at6TensorD1Ev>
    a05a:	48 8d 85 50 fe ff ff 	lea    -0x1b0(%rbp),%rax
    a061:	48 89 c7             	mov    %rax,%rdi
    a064:	e8 59 3c 00 00       	call   dcc2 <_ZN2at6TensorD1Ev>
    a069:	48 8d 85 a0 fe ff ff 	lea    -0x160(%rbp),%rax
    a070:	48 89 c7             	mov    %rax,%rdi
    a073:	e8 0e 27 01 00       	call   1c786 <_ZN5torch4data8IteratorINS0_7ExampleIN2at6TensorES4_EEEppEv>
    a078:	48 8d 95 b0 fe ff ff 	lea    -0x150(%rbp),%rdx
    a07f:	48 8d 85 a0 fe ff ff 	lea    -0x160(%rbp),%rax
    a086:	48 89 d6             	mov    %rdx,%rsi
    a089:	48 89 c7             	mov    %rax,%rdi
    a08c:	e8 cd 26 01 00       	call   1c75e <_ZNK5torch4data8IteratorINS0_7ExampleIN2at6TensorES4_EEEneERKS6_>
    a091:	84 c0                	test   %al,%al
    a093:	0f 85 e7 fc ff ff    	jne    9d80 <main+0x28c>
    a099:	48 8d 85 b0 fe ff ff 	lea    -0x150(%rbp),%rax
    a0a0:	48 89 c7             	mov    %rax,%rdi
    a0a3:	e8 ea bb 00 00       	call   15c92 <_ZN5torch4data8IteratorINS0_7ExampleIN2at6TensorES4_EEED1Ev>
    a0a8:	48 8d 85 a0 fe ff ff 	lea    -0x160(%rbp),%rax
    a0af:	48 89 c7             	mov    %rax,%rdi
    a0b2:	e8 db bb 00 00       	call   15c92 <_ZN5torch4data8IteratorINS0_7ExampleIN2at6TensorES4_EEED1Ev>
    a0b7:	48 83 85 68 fe ff ff 	addq   $0x1,-0x198(%rbp)
    a0be:	01 
    a0bf:	48 83 bd 68 fe ff ff 	cmpq   $0x64,-0x198(%rbp)
    a0c6:	64 
    a0c7:	0f 86 5b fc ff ff    	jbe    9d28 <main+0x234>
    a0cd:	48 8d 85 70 ff ff ff 	lea    -0x90(%rbp),%rax
    a0d4:	48 89 c7             	mov    %rax,%rdi
    a0d7:	e8 ce a4 00 00       	call   145aa <_ZN5torch5optim4AdamD1Ev>
    a0dc:	48 8d 85 90 fe ff ff 	lea    -0x170(%rbp),%rax
    a0e3:	48 89 c7             	mov    %rax,%rdi
    a0e6:	e8 4f bb 00 00       	call   15c3a <_ZNSt10shared_ptrI3NetED1Ev>
    a0eb:	48 8d 85 48 fe ff ff 	lea    -0x1b8(%rbp),%rax
    a0f2:	48 89 c7             	mov    %rax,%rdi
    a0f5:	e8 ae 22 01 00       	call   1c3a8 <_ZNSt10unique_ptrIN5torch4data19StatelessDataLoaderINS1_8datasets10MapDatasetI10CSVDatasetNS1_10transforms5StackINS1_7ExampleIN2at6TensorESA_EEEEEENS1_8samplers13RandomSamplerEEESt14default_deleteISG_EED1Ev>
    a0fa:	48 8d 85 20 ff ff ff 	lea    -0xe0(%rbp),%rax
    a101:	48 89 c7             	mov    %rax,%rdi
    a104:	e8 05 b9 00 00       	call   15a0e <_ZN5torch4data8datasets10MapDatasetI10CSVDatasetNS0_10transforms5StackINS0_7ExampleIN2at6TensorES8_EEEEED1Ev>
    a109:	b8 00 00 00 00       	mov    $0x0,%eax
    a10e:	48 8b 55 e8          	mov    -0x18(%rbp),%rdx
    a112:	64 48 2b 14 25 28 00 	sub    %fs:0x28,%rdx
    a119:	00 00 
    a11b:	0f 84 c9 01 00 00    	je     a2ea <main+0x7f6>
    a121:	e9 bf 01 00 00       	jmp    a2e5 <main+0x7f1>
    a126:	48 89 c3             	mov    %rax,%rbx
    a129:	48 8d 85 e0 fe ff ff 	lea    -0x120(%rbp),%rax
    a130:	48 89 c7             	mov    %rax,%rdi
    a133:	e8 3a b8 00 00       	call   15972 <_ZN5torch4data10transforms5StackINS0_7ExampleIN2at6TensorES5_EEED1Ev>
    a138:	48 8d 85 70 ff ff ff 	lea    -0x90(%rbp),%rax
    a13f:	48 89 c7             	mov    %rax,%rdi
    a142:	e8 2b b7 00 00       	call   15872 <_ZN10CSVDatasetD1Ev>
    a147:	eb 03                	jmp    a14c <main+0x658>
    a149:	48 89 c3             	mov    %rax,%rbx
    a14c:	48 8d 85 c0 fe ff ff 	lea    -0x140(%rbp),%rax
    a153:	48 89 c7             	mov    %rax,%rdi
    a156:	e8 a5 f7 ff ff       	call   9900 <_ZNSsD1Ev@plt>
    a15b:	eb 03                	jmp    a160 <main+0x66c>
    a15d:	48 89 c3             	mov    %rax,%rbx
    a160:	48 8d 85 b0 fe ff ff 	lea    -0x150(%rbp),%rax
    a167:	48 89 c7             	mov    %rax,%rdi
    a16a:	e8 6b 27 01 00       	call   1c8da <_ZNSt15__new_allocatorIcED1Ev>
    a16f:	90                   	nop
    a170:	48 89 d8             	mov    %rbx,%rax
    a173:	48 8b 55 e8          	mov    -0x18(%rbp),%rdx
    a177:	64 48 2b 14 25 28 00 	sub    %fs:0x28,%rdx
    a17e:	00 00 
    a180:	74 05                	je     a187 <main+0x693>
    a182:	e8 79 ef ff ff       	call   9100 <__stack_chk_fail@plt>
    a187:	48 89 c7             	mov    %rax,%rdi
    a18a:	e8 31 f1 ff ff       	call   92c0 <_Unwind_Resume@plt>
    a18f:	48 89 c3             	mov    %rax,%rbx
    a192:	48 8d 85 70 ff ff ff 	lea    -0x90(%rbp),%rax
    a199:	48 89 c7             	mov    %rax,%rdi
    a19c:	e8 6d b8 00 00       	call   15a0e <_ZN5torch4data8datasets10MapDatasetI10CSVDatasetNS0_10transforms5StackINS0_7ExampleIN2at6TensorES8_EEEEED1Ev>
    a1a1:	e9 11 01 00 00       	jmp    a2b7 <main+0x7c3>
    a1a6:	48 89 c3             	mov    %rax,%rbx
    a1a9:	48 8d 85 c0 fe ff ff 	lea    -0x140(%rbp),%rax
    a1b0:	48 89 c7             	mov    %rax,%rdi
    a1b3:	e8 d4 da 00 00       	call   17c8c <_ZNSt6vectorIN2at6TensorESaIS1_EED1Ev>
    a1b8:	eb 03                	jmp    a1bd <main+0x6c9>
    a1ba:	48 89 c3             	mov    %rax,%rbx
    a1bd:	48 8d 85 e0 fe ff ff 	lea    -0x120(%rbp),%rax
    a1c4:	48 89 c7             	mov    %rax,%rdi
    a1c7:	e8 88 a3 00 00       	call   14554 <_ZN5torch5optim11AdamOptionsD1Ev>
    a1cc:	e9 c3 00 00 00       	jmp    a294 <main+0x7a0>
    a1d1:	48 89 c3             	mov    %rax,%rbx
    a1d4:	48 8d 85 e0 fe ff ff 	lea    -0x120(%rbp),%rax
    a1db:	48 89 c7             	mov    %rax,%rdi
    a1de:	e8 df 3a 00 00       	call   dcc2 <_ZN2at6TensorD1Ev>
    a1e3:	eb 73                	jmp    a258 <main+0x764>
    a1e5:	48 89 c3             	mov    %rax,%rbx
    a1e8:	48 8d 85 e0 fe ff ff 	lea    -0x120(%rbp),%rax
    a1ef:	48 89 c7             	mov    %rax,%rdi
    a1f2:	e8 f7 ba 00 00       	call   15cee <_ZN5torch2nn14BCELossOptionsD1Ev>
    a1f7:	eb 37                	jmp    a230 <main+0x73c>
    a1f9:	48 89 c3             	mov    %rax,%rbx
    a1fc:	48 8d 85 c0 fe ff ff 	lea    -0x140(%rbp),%rax
    a203:	48 89 c7             	mov    %rax,%rdi
    a206:	e8 b7 3a 00 00       	call   dcc2 <_ZN2at6TensorD1Ev>
    a20b:	eb 14                	jmp    a221 <main+0x72d>
    a20d:	48 89 c3             	mov    %rax,%rbx
    a210:	48 8d 45 c0          	lea    -0x40(%rbp),%rax
    a214:	48 89 c7             	mov    %rax,%rdi
    a217:	e8 ee ba 00 00       	call   15d0a <_ZNSt8functionIFN2at6TensorEvEED1Ev>
    a21c:	eb 03                	jmp    a221 <main+0x72d>
    a21e:	48 89 c3             	mov    %rax,%rbx
    a221:	48 8d 85 60 fe ff ff 	lea    -0x1a0(%rbp),%rax
    a228:	48 89 c7             	mov    %rax,%rdi
    a22b:	e8 92 3a 00 00       	call   dcc2 <_ZN2at6TensorD1Ev>
    a230:	48 8d 85 58 fe ff ff 	lea    -0x1a8(%rbp),%rax
    a237:	48 89 c7             	mov    %rax,%rdi
    a23a:	e8 83 3a 00 00       	call   dcc2 <_ZN2at6TensorD1Ev>
    a23f:	eb 03                	jmp    a244 <main+0x750>
    a241:	48 89 c3             	mov    %rax,%rbx
    a244:	48 8d 85 50 fe ff ff 	lea    -0x1b0(%rbp),%rax
    a24b:	48 89 c7             	mov    %rax,%rdi
    a24e:	e8 6f 3a 00 00       	call   dcc2 <_ZN2at6TensorD1Ev>
    a253:	eb 03                	jmp    a258 <main+0x764>
    a255:	48 89 c3             	mov    %rax,%rbx
    a258:	48 8d 85 b0 fe ff ff 	lea    -0x150(%rbp),%rax
    a25f:	48 89 c7             	mov    %rax,%rdi
    a262:	e8 2b ba 00 00       	call   15c92 <_ZN5torch4data8IteratorINS0_7ExampleIN2at6TensorES4_EEED1Ev>
    a267:	eb 03                	jmp    a26c <main+0x778>
    a269:	48 89 c3             	mov    %rax,%rbx
    a26c:	48 8d 85 a0 fe ff ff 	lea    -0x160(%rbp),%rax
    a273:	48 89 c7             	mov    %rax,%rdi
    a276:	e8 17 ba 00 00       	call   15c92 <_ZN5torch4data8IteratorINS0_7ExampleIN2at6TensorES4_EEED1Ev>
    a27b:	eb 03                	jmp    a280 <main+0x78c>
    a27d:	48 89 c3             	mov    %rax,%rbx
    a280:	48 8d 85 70 ff ff ff 	lea    -0x90(%rbp),%rax
    a287:	48 89 c7             	mov    %rax,%rdi
    a28a:	e8 1b a3 00 00       	call   145aa <_ZN5torch5optim4AdamD1Ev>
    a28f:	eb 03                	jmp    a294 <main+0x7a0>
    a291:	48 89 c3             	mov    %rax,%rbx
    a294:	48 8d 85 90 fe ff ff 	lea    -0x170(%rbp),%rax
    a29b:	48 89 c7             	mov    %rax,%rdi
    a29e:	e8 97 b9 00 00       	call   15c3a <_ZNSt10shared_ptrI3NetED1Ev>
    a2a3:	eb 03                	jmp    a2a8 <main+0x7b4>
    a2a5:	48 89 c3             	mov    %rax,%rbx
    a2a8:	48 8d 85 48 fe ff ff 	lea    -0x1b8(%rbp),%rax
    a2af:	48 89 c7             	mov    %rax,%rdi
    a2b2:	e8 f1 20 01 00       	call   1c3a8 <_ZNSt10unique_ptrIN5torch4data19StatelessDataLoaderINS1_8datasets10MapDatasetI10CSVDatasetNS1_10transforms5StackINS1_7ExampleIN2at6TensorESA_EEEEEENS1_8samplers13RandomSamplerEEESt14default_deleteISG_EED1Ev>
    a2b7:	48 8d 85 20 ff ff ff 	lea    -0xe0(%rbp),%rax
    a2be:	48 89 c7             	mov    %rax,%rdi
    a2c1:	e8 48 b7 00 00       	call   15a0e <_ZN5torch4data8datasets10MapDatasetI10CSVDatasetNS0_10transforms5StackINS0_7ExampleIN2at6TensorES8_EEEEED1Ev>
    a2c6:	48 89 d8             	mov    %rbx,%rax
    a2c9:	48 8b 55 e8          	mov    -0x18(%rbp),%rdx
    a2cd:	64 48 2b 14 25 28 00 	sub    %fs:0x28,%rdx
    a2d4:	00 00 
    a2d6:	74 05                	je     a2dd <main+0x7e9>
    a2d8:	e8 23 ee ff ff       	call   9100 <__stack_chk_fail@plt>
    a2dd:	48 89 c7             	mov    %rax,%rdi
    a2e0:	e8 db ef ff ff       	call   92c0 <_Unwind_Resume@plt>
    a2e5:	e8 16 ee ff ff       	call   9100 <__stack_chk_fail@plt>
    a2ea:	48 8b 5d f8          	mov    -0x8(%rbp),%rbx
    a2ee:	c9                   	leave
    a2ef:	c3                   	ret

000000000000a2f0 <_ZN3c10L20createVectorFromListIlEESt6vectorIT_SaIS2_EEPKNS_6detail8ListImplE>:
    a2f0:	55                   	push   %rbp
    a2f1:	48 89 e5             	mov    %rsp,%rbp
    a2f4:	48 83 ec 20          	sub    $0x20,%rsp
    a2f8:	48 89 7d e8          	mov    %rdi,-0x18(%rbp)
    a2fc:	48 89 75 e0          	mov    %rsi,-0x20(%rbp)
    a300:	64 48 8b 04 25 28 00 	mov    %fs:0x28,%rax
    a307:	00 00 
    a309:	48 89 45 f8          	mov    %rax,-0x8(%rbp)
    a30d:	31 c0                	xor    %eax,%eax
    a30f:	48 8b 45 e8          	mov    -0x18(%rbp),%rax
    a313:	48 8b 55 e0          	mov    -0x20(%rbp),%rdx
    a317:	48 89 d6             	mov    %rdx,%rsi
    a31a:	48 89 c7             	mov    %rax,%rdi
    a31d:	e8 ab 02 00 00       	call   a5cd <_ZN3c10L24createVectorLikeFromListISt6vectorIlSaIlEEEET_PKNS_6detail8ListImplE>
    a322:	48 8b 45 f8          	mov    -0x8(%rbp),%rax
    a326:	64 48 2b 04 25 28 00 	sub    %fs:0x28,%rax
    a32d:	00 00 
    a32f:	74 05                	je     a336 <_ZN3c10L20createVectorFromListIlEESt6vectorIT_SaIS2_EEPKNS_6detail8ListImplE+0x46>
    a331:	e8 ca ed ff ff       	call   9100 <__stack_chk_fail@plt>
    a336:	48 8b 45 e8          	mov    -0x18(%rbp),%rax
    a33a:	c9                   	leave
    a33b:	c3                   	ret

000000000000a33c <_ZN3c10L20createVectorFromListINS_6SymIntEEESt6vectorIT_SaIS3_EEPKNS_6detail8ListImplE>:
    a33c:	55                   	push   %rbp
    a33d:	48 89 e5             	mov    %rsp,%rbp
    a340:	48 83 ec 20          	sub    $0x20,%rsp
    a344:	48 89 7d e8          	mov    %rdi,-0x18(%rbp)
    a348:	48 89 75 e0          	mov    %rsi,-0x20(%rbp)
    a34c:	64 48 8b 04 25 28 00 	mov    %fs:0x28,%rax
    a353:	00 00 
    a355:	48 89 45 f8          	mov    %rax,-0x8(%rbp)
    a359:	31 c0                	xor    %eax,%eax
    a35b:	48 8b 45 e8          	mov    -0x18(%rbp),%rax
    a35f:	48 8b 55 e0          	mov    -0x20(%rbp),%rdx
    a363:	48 89 d6             	mov    %rdx,%rsi
    a366:	48 89 c7             	mov    %rax,%rdi
    a369:	e8 7f 03 00 00       	call   a6ed <_ZN3c10L24createVectorLikeFromListISt6vectorINS_6SymIntESaIS2_EEEET_PKNS_6detail8ListImplE>
    a36e:	48 8b 45 f8          	mov    -0x8(%rbp),%rax
    a372:	64 48 2b 04 25 28 00 	sub    %fs:0x28,%rax
    a379:	00 00 
    a37b:	74 05                	je     a382 <_ZN3c10L20createVectorFromListINS_6SymIntEEESt6vectorIT_SaIS3_EEPKNS_6detail8ListImplE+0x46>
    a37d:	e8 7e ed ff ff       	call   9100 <__stack_chk_fail@plt>
    a382:	48 8b 45 e8          	mov    -0x18(%rbp),%rax
    a386:	c9                   	leave
    a387:	c3                   	ret

000000000000a388 <_ZN3c10L24createVectorLikeFromListINS_11SmallVectorIlLj5EEEEET_PKNS_6detail8ListImplE>:
    a388:	55                   	push   %rbp
    a389:	48 89 e5             	mov    %rsp,%rbp
    a38c:	53                   	push   %rbx
    a38d:	48 83 ec 48          	sub    $0x48,%rsp
    a391:	48 89 7d b8          	mov    %rdi,-0x48(%rbp)
    a395:	48 89 75 b0          	mov    %rsi,-0x50(%rbp)
    a399:	64 48 8b 04 25 28 00 	mov    %fs:0x28,%rax
    a3a0:	00 00 
    a3a2:	48 89 45 e8          	mov    %rax,-0x18(%rbp)
    a3a6:	31 c0                	xor    %eax,%eax
    a3a8:	48 8b 45 b8          	mov    -0x48(%rbp),%rax
    a3ac:	48 89 c7             	mov    %rax,%rdi
    a3af:	e8 d4 ef 00 00       	call   19388 <_ZN3c1011SmallVectorIlLj5EEC1Ev>
    a3b4:	48 8b 5d b8          	mov    -0x48(%rbp),%rbx
    a3b8:	48 8b 45 b0          	mov    -0x50(%rbp),%rax
    a3bc:	48 83 c0 10          	add    $0x10,%rax
    a3c0:	48 89 c7             	mov    %rax,%rdi
    a3c3:	e8 92 e3 00 00       	call   1875a <_ZNKSt6vectorIN3c106IValueESaIS1_EE4sizeEv>
    a3c8:	48 89 c6             	mov    %rax,%rsi
    a3cb:	48 89 df             	mov    %rbx,%rdi
    a3ce:	e8 a7 44 01 00       	call   1e87a <_ZN3c1015SmallVectorImplIlE7reserveEm>
    a3d3:	48 8b 45 b0          	mov    -0x50(%rbp),%rax
    a3d7:	48 83 c0 10          	add    $0x10,%rax
    a3db:	48 89 45 d8          	mov    %rax,-0x28(%rbp)
    a3df:	48 8b 45 d8          	mov    -0x28(%rbp),%rax
    a3e3:	48 89 c7             	mov    %rax,%rdi
    a3e6:	e8 39 44 01 00       	call   1e824 <_ZNKSt6vectorIN3c106IValueESaIS1_EE5beginEv>
    a3eb:	48 89 45 c8          	mov    %rax,-0x38(%rbp)
    a3ef:	48 8b 45 d8          	mov    -0x28(%rbp),%rax
    a3f3:	48 89 c7             	mov    %rax,%rdi
    a3f6:	e8 03 eb 00 00       	call   18efe <_ZNKSt6vectorIN3c106IValueESaIS1_EE3endEv>
    a3fb:	48 89 45 d0          	mov    %rax,-0x30(%rbp)
    a3ff:	eb 37                	jmp    a438 <_ZN3c10L24createVectorLikeFromListINS_11SmallVectorIlLj5EEEEET_PKNS_6detail8ListImplE+0xb0>
    a401:	48 8d 45 c8          	lea    -0x38(%rbp),%rax
    a405:	48 89 c7             	mov    %rax,%rdi
    a408:	e8 3d eb 00 00       	call   18f4a <_ZNK9__gnu_cxx17__normal_iteratorIPKN3c106IValueESt6vectorIS2_SaIS2_EEEdeEv>
    a40d:	48 89 45 e0          	mov    %rax,-0x20(%rbp)
    a411:	48 8b 5d b8          	mov    -0x48(%rbp),%rbx
    a415:	48 8b 45 e0          	mov    -0x20(%rbp),%rax
    a419:	48 89 c7             	mov    %rax,%rdi
    a41c:	e8 cb 59 00 00       	call   fdec <_ZNKR3c106IValue2toIlEENS_6detail35ivalue_to_const_ref_overload_returnIT_E4typeEv>
    a421:	48 89 c6             	mov    %rax,%rsi
    a424:	48 89 df             	mov    %rbx,%rdi
    a427:	e8 e6 44 01 00       	call   1e912 <_ZN3c1023SmallVectorTemplateBaseIlLb1EE9push_backEl>
    a42c:	48 8d 45 c8          	lea    -0x38(%rbp),%rax
    a430:	48 89 c7             	mov    %rax,%rdi
    a433:	e8 ba 44 01 00       	call   1e8f2 <_ZN9__gnu_cxx17__normal_iteratorIPKN3c106IValueESt6vectorIS2_SaIS2_EEEppEv>
    a438:	48 8d 55 d0          	lea    -0x30(%rbp),%rdx
    a43c:	48 8d 45 c8          	lea    -0x38(%rbp),%rax
    a440:	48 89 d6             	mov    %rdx,%rsi
    a443:	48 89 c7             	mov    %rax,%rdi
    a446:	e8 6c 44 01 00       	call   1e8b7 <_ZN9__gnu_cxxneIPKN3c106IValueESt6vectorIS2_SaIS2_EEEEbRKNS_17__normal_iteratorIT_T0_EESD_>
    a44b:	84 c0                	test   %al,%al
    a44d:	75 b2                	jne    a401 <_ZN3c10L24createVectorLikeFromListINS_11SmallVectorIlLj5EEEEET_PKNS_6detail8ListImplE+0x79>
    a44f:	48 8b 45 e8          	mov    -0x18(%rbp),%rax
    a453:	64 48 2b 04 25 28 00 	sub    %fs:0x28,%rax
    a45a:	00 00 
    a45c:	74 35                	je     a493 <_ZN3c10L24createVectorLikeFromListINS_11SmallVectorIlLj5EEEEET_PKNS_6detail8ListImplE+0x10b>
    a45e:	eb 2e                	jmp    a48e <_ZN3c10L24createVectorLikeFromListINS_11SmallVectorIlLj5EEEEET_PKNS_6detail8ListImplE+0x106>
    a460:	48 89 c3             	mov    %rax,%rbx
    a463:	48 8b 45 b8          	mov    -0x48(%rbp),%rax
    a467:	48 89 c7             	mov    %rax,%rdi
    a46a:	e8 73 e3 00 00       	call   187e2 <_ZN3c1011SmallVectorIlLj5EED1Ev>
    a46f:	48 89 d8             	mov    %rbx,%rax
    a472:	48 8b 55 e8          	mov    -0x18(%rbp),%rdx
    a476:	64 48 2b 14 25 28 00 	sub    %fs:0x28,%rdx
    a47d:	00 00 
    a47f:	74 05                	je     a486 <_ZN3c10L24createVectorLikeFromListINS_11SmallVectorIlLj5EEEEET_PKNS_6detail8ListImplE+0xfe>
    a481:	e8 7a ec ff ff       	call   9100 <__stack_chk_fail@plt>
    a486:	48 89 c7             	mov    %rax,%rdi
    a489:	e8 32 ee ff ff       	call   92c0 <_Unwind_Resume@plt>
    a48e:	e8 6d ec ff ff       	call   9100 <__stack_chk_fail@plt>
    a493:	48 8b 45 b8          	mov    -0x48(%rbp),%rax
    a497:	48 8b 5d f8          	mov    -0x8(%rbp),%rbx
    a49b:	c9                   	leave
    a49c:	c3                   	ret

000000000000a49d <_ZN3c10L20createVectorFromListIdEESt6vectorIT_SaIS2_EEPKNS_6detail8ListImplE>:
    a49d:	55                   	push   %rbp
    a49e:	48 89 e5             	mov    %rsp,%rbp
    a4a1:	48 83 ec 20          	sub    $0x20,%rsp
    a4a5:	48 89 7d e8          	mov    %rdi,-0x18(%rbp)
    a4a9:	48 89 75 e0          	mov    %rsi,-0x20(%rbp)
    a4ad:	64 48 8b 04 25 28 00 	mov    %fs:0x28,%rax
    a4b4:	00 00 
    a4b6:	48 89 45 f8          	mov    %rax,-0x8(%rbp)
    a4ba:	31 c0                	xor    %eax,%eax
    a4bc:	48 8b 45 e8          	mov    -0x18(%rbp),%rax
    a4c0:	48 8b 55 e0          	mov    -0x20(%rbp),%rdx
    a4c4:	48 89 d6             	mov    %rdx,%rsi
    a4c7:	48 89 c7             	mov    %rax,%rdi
    a4ca:	e8 5e 03 00 00       	call   a82d <_ZN3c10L24createVectorLikeFromListISt6vectorIdSaIdEEEET_PKNS_6detail8ListImplE>
    a4cf:	48 8b 45 f8          	mov    -0x8(%rbp),%rax
    a4d3:	64 48 2b 04 25 28 00 	sub    %fs:0x28,%rax
    a4da:	00 00 
    a4dc:	74 05                	je     a4e3 <_ZN3c10L20createVectorFromListIdEESt6vectorIT_SaIS2_EEPKNS_6detail8ListImplE+0x46>
    a4de:	e8 1d ec ff ff       	call   9100 <__stack_chk_fail@plt>
    a4e3:	48 8b 45 e8          	mov    -0x18(%rbp),%rax
    a4e7:	c9                   	leave
    a4e8:	c3                   	ret

000000000000a4e9 <_ZN3c10L20createVectorFromListINS_7complexIdEEEESt6vectorIT_SaIS4_EEPKNS_6detail8ListImplE>:
    a4e9:	55                   	push   %rbp
    a4ea:	48 89 e5             	mov    %rsp,%rbp
    a4ed:	48 83 ec 20          	sub    $0x20,%rsp
    a4f1:	48 89 7d e8          	mov    %rdi,-0x18(%rbp)
    a4f5:	48 89 75 e0          	mov    %rsi,-0x20(%rbp)
    a4f9:	64 48 8b 04 25 28 00 	mov    %fs:0x28,%rax
    a500:	00 00 
    a502:	48 89 45 f8          	mov    %rax,-0x8(%rbp)
    a506:	31 c0                	xor    %eax,%eax
    a508:	48 8b 45 e8          	mov    -0x18(%rbp),%rax
    a50c:	48 8b 55 e0          	mov    -0x20(%rbp),%rdx
    a510:	48 89 d6             	mov    %rdx,%rsi
    a513:	48 89 c7             	mov    %rax,%rdi
    a516:	e8 37 04 00 00       	call   a952 <_ZN3c10L24createVectorLikeFromListISt6vectorINS_7complexIdEESaIS3_EEEET_PKNS_6detail8ListImplE>
    a51b:	48 8b 45 f8          	mov    -0x8(%rbp),%rax
    a51f:	64 48 2b 04 25 28 00 	sub    %fs:0x28,%rax
    a526:	00 00 
    a528:	74 05                	je     a52f <_ZN3c10L20createVectorFromListINS_7complexIdEEEESt6vectorIT_SaIS4_EEPKNS_6detail8ListImplE+0x46>
    a52a:	e8 d1 eb ff ff       	call   9100 <__stack_chk_fail@plt>
    a52f:	48 8b 45 e8          	mov    -0x18(%rbp),%rax
    a533:	c9                   	leave
    a534:	c3                   	ret

000000000000a535 <_ZN3c10L20createVectorFromListIN2at6TensorEEESt6vectorIT_SaIS4_EEPKNS_6detail8ListImplE>:
    a535:	55                   	push   %rbp
    a536:	48 89 e5             	mov    %rsp,%rbp
    a539:	48 83 ec 20          	sub    $0x20,%rsp
    a53d:	48 89 7d e8          	mov    %rdi,-0x18(%rbp)
    a541:	48 89 75 e0          	mov    %rsi,-0x20(%rbp)
    a545:	64 48 8b 04 25 28 00 	mov    %fs:0x28,%rax
    a54c:	00 00 
    a54e:	48 89 45 f8          	mov    %rax,-0x8(%rbp)
    a552:	31 c0                	xor    %eax,%eax
    a554:	48 8b 45 e8          	mov    -0x18(%rbp),%rax
    a558:	48 8b 55 e0          	mov    -0x20(%rbp),%rdx
    a55c:	48 89 d6             	mov    %rdx,%rsi
    a55f:	48 89 c7             	mov    %rax,%rdi
    a562:	e8 19 05 00 00       	call   aa80 <_ZN3c10L24createVectorLikeFromListISt6vectorIN2at6TensorESaIS3_EEEET_PKNS_6detail8ListImplE>
    a567:	48 8b 45 f8          	mov    -0x8(%rbp),%rax
    a56b:	64 48 2b 04 25 28 00 	sub    %fs:0x28,%rax
    a572:	00 00 
    a574:	74 05                	je     a57b <_ZN3c10L20createVectorFromListIN2at6TensorEEESt6vectorIT_SaIS4_EEPKNS_6detail8ListImplE+0x46>
    a576:	e8 85 eb ff ff       	call   9100 <__stack_chk_fail@plt>
    a57b:	48 8b 45 e8          	mov    -0x18(%rbp),%rax
    a57f:	c9                   	leave
    a580:	c3                   	ret

000000000000a581 <_ZN3c10L20createVectorFromListISt8optionalIN2at6TensorEEEESt6vectorIT_SaIS6_EEPKNS_6detail8ListImplE>:
    a581:	55                   	push   %rbp
    a582:	48 89 e5             	mov    %rsp,%rbp
    a585:	48 83 ec 20          	sub    $0x20,%rsp
    a589:	48 89 7d e8          	mov    %rdi,-0x18(%rbp)
    a58d:	48 89 75 e0          	mov    %rsi,-0x20(%rbp)
    a591:	64 48 8b 04 25 28 00 	mov    %fs:0x28,%rax
    a598:	00 00 
    a59a:	48 89 45 f8          	mov    %rax,-0x8(%rbp)
    a59e:	31 c0                	xor    %eax,%eax
    a5a0:	48 8b 45 e8          	mov    -0x18(%rbp),%rax
    a5a4:	48 8b 55 e0          	mov    -0x20(%rbp),%rdx
    a5a8:	48 89 d6             	mov    %rdx,%rsi
    a5ab:	48 89 c7             	mov    %rax,%rdi
    a5ae:	e8 e8 05 00 00       	call   ab9b <_ZN3c10L24createVectorLikeFromListISt6vectorISt8optionalIN2at6TensorEESaIS5_EEEET_PKNS_6detail8ListImplE>
    a5b3:	48 8b 45 f8          	mov    -0x8(%rbp),%rax
    a5b7:	64 48 2b 04 25 28 00 	sub    %fs:0x28,%rax
    a5be:	00 00 
    a5c0:	74 05                	je     a5c7 <_ZN3c10L20createVectorFromListISt8optionalIN2at6TensorEEEESt6vectorIT_SaIS6_EEPKNS_6detail8ListImplE+0x46>
    a5c2:	e8 39 eb ff ff       	call   9100 <__stack_chk_fail@plt>
    a5c7:	48 8b 45 e8          	mov    -0x18(%rbp),%rax
    a5cb:	c9                   	leave
    a5cc:	c3                   	ret

000000000000a5cd <_ZN3c10L24createVectorLikeFromListISt6vectorIlSaIlEEEET_PKNS_6detail8ListImplE>:
    a5cd:	55                   	push   %rbp
    a5ce:	48 89 e5             	mov    %rsp,%rbp
    a5d1:	53                   	push   %rbx
    a5d2:	48 83 ec 48          	sub    $0x48,%rsp
    a5d6:	48 89 7d b8          	mov    %rdi,-0x48(%rbp)
    a5da:	48 89 75 b0          	mov    %rsi,-0x50(%rbp)
    a5de:	64 48 8b 04 25 28 00 	mov    %fs:0x28,%rax
    a5e5:	00 00 
    a5e7:	48 89 45 e8          	mov    %rax,-0x18(%rbp)
    a5eb:	31 c0                	xor    %eax,%eax
    a5ed:	48 8b 45 b8          	mov    -0x48(%rbp),%rax
    a5f1:	48 89 c7             	mov    %rax,%rdi
    a5f4:	e8 69 6a 00 00       	call   11062 <_ZNSt6vectorIlSaIlEEC1Ev>
    a5f9:	48 8b 45 b0          	mov    -0x50(%rbp),%rax
    a5fd:	48 83 c0 10          	add    $0x10,%rax
    a601:	48 89 c7             	mov    %rax,%rdi
    a604:	e8 51 e1 00 00       	call   1875a <_ZNKSt6vectorIN3c106IValueESaIS1_EE4sizeEv>
    a609:	48 89 c2             	mov    %rax,%rdx
    a60c:	48 8b 45 b8          	mov    -0x48(%rbp),%rax
    a610:	48 89 d6             	mov    %rdx,%rsi
    a613:	48 89 c7             	mov    %rax,%rdi
    a616:	e8 97 f1 00 00       	call   197b2 <_ZNSt6vectorIlSaIlEE7reserveEm>
    a61b:	48 8b 45 b0          	mov    -0x50(%rbp),%rax
    a61f:	48 83 c0 10          	add    $0x10,%rax
    a623:	48 89 45 d8          	mov    %rax,-0x28(%rbp)
    a627:	48 8b 45 d8          	mov    -0x28(%rbp),%rax
    a62b:	48 89 c7             	mov    %rax,%rdi
    a62e:	e8 f1 41 01 00       	call   1e824 <_ZNKSt6vectorIN3c106IValueESaIS1_EE5beginEv>
    a633:	48 89 45 c0          	mov    %rax,-0x40(%rbp)
    a637:	48 8b 45 d8          	mov    -0x28(%rbp),%rax
    a63b:	48 89 c7             	mov    %rax,%rdi
    a63e:	e8 bb e8 00 00       	call   18efe <_ZNKSt6vectorIN3c106IValueESaIS1_EE3endEv>
    a643:	48 89 45 c8          	mov    %rax,-0x38(%rbp)
    a647:	eb 3f                	jmp    a688 <_ZN3c10L24createVectorLikeFromListISt6vectorIlSaIlEEEET_PKNS_6detail8ListImplE+0xbb>
    a649:	48 8d 45 c0          	lea    -0x40(%rbp),%rax
    a64d:	48 89 c7             	mov    %rax,%rdi
    a650:	e8 f5 e8 00 00       	call   18f4a <_ZNK9__gnu_cxx17__normal_iteratorIPKN3c106IValueESt6vectorIS2_SaIS2_EEEdeEv>
    a655:	48 89 45 e0          	mov    %rax,-0x20(%rbp)
    a659:	48 8b 45 e0          	mov    -0x20(%rbp),%rax
    a65d:	48 89 c7             	mov    %rax,%rdi
    a660:	e8 87 57 00 00       	call   fdec <_ZNKR3c106IValue2toIlEENS_6detail35ivalue_to_const_ref_overload_returnIT_E4typeEv>
    a665:	48 89 45 d0          	mov    %rax,-0x30(%rbp)
    a669:	48 8d 55 d0          	lea    -0x30(%rbp),%rdx
    a66d:	48 8b 45 b8          	mov    -0x48(%rbp),%rax
    a671:	48 89 d6             	mov    %rdx,%rsi
    a674:	48 89 c7             	mov    %rax,%rdi
    a677:	e8 50 f2 00 00       	call   198cc <_ZNSt6vectorIlSaIlEE9push_backEOl>
    a67c:	48 8d 45 c0          	lea    -0x40(%rbp),%rax
    a680:	48 89 c7             	mov    %rax,%rdi
    a683:	e8 6a 42 01 00       	call   1e8f2 <_ZN9__gnu_cxx17__normal_iteratorIPKN3c106IValueESt6vectorIS2_SaIS2_EEEppEv>
    a688:	48 8d 55 c8          	lea    -0x38(%rbp),%rdx
    a68c:	48 8d 45 c0          	lea    -0x40(%rbp),%rax
    a690:	48 89 d6             	mov    %rdx,%rsi
    a693:	48 89 c7             	mov    %rax,%rdi
    a696:	e8 1c 42 01 00       	call   1e8b7 <_ZN9__gnu_cxxneIPKN3c106IValueESt6vectorIS2_SaIS2_EEEEbRKNS_17__normal_iteratorIT_T0_EESD_>
    a69b:	84 c0                	test   %al,%al
    a69d:	75 aa                	jne    a649 <_ZN3c10L24createVectorLikeFromListISt6vectorIlSaIlEEEET_PKNS_6detail8ListImplE+0x7c>
    a69f:	48 8b 45 e8          	mov    -0x18(%rbp),%rax
    a6a3:	64 48 2b 04 25 28 00 	sub    %fs:0x28,%rax
    a6aa:	00 00 
    a6ac:	74 35                	je     a6e3 <_ZN3c10L24createVectorLikeFromListISt6vectorIlSaIlEEEET_PKNS_6detail8ListImplE+0x116>
    a6ae:	eb 2e                	jmp    a6de <_ZN3c10L24createVectorLikeFromListISt6vectorIlSaIlEEEET_PKNS_6detail8ListImplE+0x111>
    a6b0:	48 89 c3             	mov    %rax,%rbx
    a6b3:	48 8b 45 b8          	mov    -0x48(%rbp),%rax
    a6b7:	48 89 c7             	mov    %rax,%rdi
    a6ba:	e8 c9 be 00 00       	call   16588 <_ZNSt6vectorIlSaIlEED1Ev>
    a6bf:	48 89 d8             	mov    %rbx,%rax
    a6c2:	48 8b 55 e8          	mov    -0x18(%rbp),%rdx
    a6c6:	64 48 2b 14 25 28 00 	sub    %fs:0x28,%rdx
    a6cd:	00 00 
    a6cf:	74 05                	je     a6d6 <_ZN3c10L24createVectorLikeFromListISt6vectorIlSaIlEEEET_PKNS_6detail8ListImplE+0x109>
    a6d1:	e8 2a ea ff ff       	call   9100 <__stack_chk_fail@plt>
    a6d6:	48 89 c7             	mov    %rax,%rdi
    a6d9:	e8 e2 eb ff ff       	call   92c0 <_Unwind_Resume@plt>
    a6de:	e8 1d ea ff ff       	call   9100 <__stack_chk_fail@plt>
    a6e3:	48 8b 45 b8          	mov    -0x48(%rbp),%rax
    a6e7:	48 8b 5d f8          	mov    -0x8(%rbp),%rbx
    a6eb:	c9                   	leave
    a6ec:	c3                   	ret

000000000000a6ed <_ZN3c10L24createVectorLikeFromListISt6vectorINS_6SymIntESaIS2_EEEET_PKNS_6detail8ListImplE>:
    a6ed:	55                   	push   %rbp
    a6ee:	48 89 e5             	mov    %rsp,%rbp
    a6f1:	53                   	push   %rbx
    a6f2:	48 83 ec 48          	sub    $0x48,%rsp
    a6f6:	48 89 7d b8          	mov    %rdi,-0x48(%rbp)
    a6fa:	48 89 75 b0          	mov    %rsi,-0x50(%rbp)
    a6fe:	64 48 8b 04 25 28 00 	mov    %fs:0x28,%rax
    a705:	00 00 
    a707:	48 89 45 e8          	mov    %rax,-0x18(%rbp)
    a70b:	31 c0                	xor    %eax,%eax
    a70d:	48 8b 45 b8          	mov    -0x48(%rbp),%rax
    a711:	48 89 c7             	mov    %rax,%rdi
    a714:	e8 f5 5b 00 00       	call   1030e <_ZNSt6vectorIN3c106SymIntESaIS1_EEC1Ev>
    a719:	48 8b 45 b0          	mov    -0x50(%rbp),%rax
    a71d:	48 83 c0 10          	add    $0x10,%rax
    a721:	48 89 c7             	mov    %rax,%rdi
    a724:	e8 31 e0 00 00       	call   1875a <_ZNKSt6vectorIN3c106IValueESaIS1_EE4sizeEv>
    a729:	48 89 c2             	mov    %rax,%rdx
    a72c:	48 8b 45 b8          	mov    -0x48(%rbp),%rax
    a730:	48 89 d6             	mov    %rdx,%rsi
    a733:	48 89 c7             	mov    %rax,%rdi
    a736:	e8 af 8c 01 00       	call   233ea <_ZNSt6vectorIN3c106SymIntESaIS1_EE7reserveEm>
    a73b:	48 8b 45 b0          	mov    -0x50(%rbp),%rax
    a73f:	48 83 c0 10          	add    $0x10,%rax
    a743:	48 89 45 d8          	mov    %rax,-0x28(%rbp)
    a747:	48 8b 45 d8          	mov    -0x28(%rbp),%rax
    a74b:	48 89 c7             	mov    %rax,%rdi
    a74e:	e8 d1 40 01 00       	call   1e824 <_ZNKSt6vectorIN3c106IValueESaIS1_EE5beginEv>
    a753:	48 89 45 c0          	mov    %rax,-0x40(%rbp)
    a757:	48 8b 45 d8          	mov    -0x28(%rbp),%rax
    a75b:	48 89 c7             	mov    %rax,%rdi
    a75e:	e8 9b e7 00 00       	call   18efe <_ZNKSt6vectorIN3c106IValueESaIS1_EE3endEv>
    a763:	48 89 45 c8          	mov    %rax,-0x38(%rbp)
    a767:	eb 4e                	jmp    a7b7 <_ZN3c10L24createVectorLikeFromListISt6vectorINS_6SymIntESaIS2_EEEET_PKNS_6detail8ListImplE+0xca>
    a769:	48 8d 45 c0          	lea    -0x40(%rbp),%rax
    a76d:	48 89 c7             	mov    %rax,%rdi
    a770:	e8 d5 e7 00 00       	call   18f4a <_ZNK9__gnu_cxx17__normal_iteratorIPKN3c106IValueESt6vectorIS2_SaIS2_EEEdeEv>
    a775:	48 89 45 e0          	mov    %rax,-0x20(%rbp)
    a779:	48 8d 45 d0          	lea    -0x30(%rbp),%rax
    a77d:	48 8b 55 e0          	mov    -0x20(%rbp),%rdx
    a781:	48 89 d6             	mov    %rdx,%rsi
    a784:	48 89 c7             	mov    %rax,%rdi
    a787:	e8 7a 56 00 00       	call   fe06 <_ZNKR3c106IValue2toINS_6SymIntEEENS_6detail35ivalue_to_const_ref_overload_returnIT_E4typeEv>
    a78c:	48 8d 55 d0          	lea    -0x30(%rbp),%rdx
    a790:	48 8b 45 b8          	mov    -0x48(%rbp),%rax
    a794:	48 89 d6             	mov    %rdx,%rsi
    a797:	48 89 c7             	mov    %rax,%rdi
    a79a:	e8 65 8d 01 00       	call   23504 <_ZNSt6vectorIN3c106SymIntESaIS1_EE9push_backEOS1_>
    a79f:	48 8d 45 d0          	lea    -0x30(%rbp),%rax
    a7a3:	48 89 c7             	mov    %rax,%rdi
    a7a6:	e8 59 1d 00 00       	call   c504 <_ZN3c106SymIntD1Ev>
    a7ab:	48 8d 45 c0          	lea    -0x40(%rbp),%rax
    a7af:	48 89 c7             	mov    %rax,%rdi
    a7b2:	e8 3b 41 01 00       	call   1e8f2 <_ZN9__gnu_cxx17__normal_iteratorIPKN3c106IValueESt6vectorIS2_SaIS2_EEEppEv>
    a7b7:	48 8d 55 c8          	lea    -0x38(%rbp),%rdx
    a7bb:	48 8d 45 c0          	lea    -0x40(%rbp),%rax
    a7bf:	48 89 d6             	mov    %rdx,%rsi
    a7c2:	48 89 c7             	mov    %rax,%rdi
    a7c5:	e8 ed 40 01 00       	call   1e8b7 <_ZN9__gnu_cxxneIPKN3c106IValueESt6vectorIS2_SaIS2_EEEEbRKNS_17__normal_iteratorIT_T0_EESD_>
    a7ca:	84 c0                	test   %al,%al
    a7cc:	75 9b                	jne    a769 <_ZN3c10L24createVectorLikeFromListISt6vectorINS_6SymIntESaIS2_EEEET_PKNS_6detail8ListImplE+0x7c>
    a7ce:	48 8b 45 e8          	mov    -0x18(%rbp),%rax
    a7d2:	64 48 2b 04 25 28 00 	sub    %fs:0x28,%rax
    a7d9:	00 00 
    a7db:	74 46                	je     a823 <_ZN3c10L24createVectorLikeFromListISt6vectorINS_6SymIntESaIS2_EEEET_PKNS_6detail8ListImplE+0x136>
    a7dd:	eb 3f                	jmp    a81e <_ZN3c10L24createVectorLikeFromListISt6vectorINS_6SymIntESaIS2_EEEET_PKNS_6detail8ListImplE+0x131>
    a7df:	48 89 c3             	mov    %rax,%rbx
    a7e2:	48 8d 45 d0          	lea    -0x30(%rbp),%rax
    a7e6:	48 89 c7             	mov    %rax,%rdi
    a7e9:	e8 16 1d 00 00       	call   c504 <_ZN3c106SymIntD1Ev>
    a7ee:	eb 03                	jmp    a7f3 <_ZN3c10L24createVectorLikeFromListISt6vectorINS_6SymIntESaIS2_EEEET_PKNS_6detail8ListImplE+0x106>
    a7f0:	48 89 c3             	mov    %rax,%rbx
    a7f3:	48 8b 45 b8          	mov    -0x48(%rbp),%rax
    a7f7:	48 89 c7             	mov    %rax,%rdi
    a7fa:	e8 8d df 00 00       	call   1878c <_ZNSt6vectorIN3c106SymIntESaIS1_EED1Ev>
    a7ff:	48 89 d8             	mov    %rbx,%rax
    a802:	48 8b 55 e8          	mov    -0x18(%rbp),%rdx
    a806:	64 48 2b 14 25 28 00 	sub    %fs:0x28,%rdx
    a80d:	00 00 
    a80f:	74 05                	je     a816 <_ZN3c10L24createVectorLikeFromListISt6vectorINS_6SymIntESaIS2_EEEET_PKNS_6detail8ListImplE+0x129>
    a811:	e8 ea e8 ff ff       	call   9100 <__stack_chk_fail@plt>
    a816:	48 89 c7             	mov    %rax,%rdi
    a819:	e8 a2 ea ff ff       	call   92c0 <_Unwind_Resume@plt>
    a81e:	e8 dd e8 ff ff       	call   9100 <__stack_chk_fail@plt>
    a823:	48 8b 45 b8          	mov    -0x48(%rbp),%rax
    a827:	48 8b 5d f8          	mov    -0x8(%rbp),%rbx
    a82b:	c9                   	leave
    a82c:	c3                   	ret

000000000000a82d <_ZN3c10L24createVectorLikeFromListISt6vectorIdSaIdEEEET_PKNS_6detail8ListImplE>:
    a82d:	55                   	push   %rbp
    a82e:	48 89 e5             	mov    %rsp,%rbp
    a831:	53                   	push   %rbx
    a832:	48 83 ec 48          	sub    $0x48,%rsp
    a836:	48 89 7d b8          	mov    %rdi,-0x48(%rbp)
    a83a:	48 89 75 b0          	mov    %rsi,-0x50(%rbp)
    a83e:	64 48 8b 04 25 28 00 	mov    %fs:0x28,%rax
    a845:	00 00 
    a847:	48 89 45 e8          	mov    %rax,-0x18(%rbp)
    a84b:	31 c0                	xor    %eax,%eax
    a84d:	48 8b 45 b8          	mov    -0x48(%rbp),%rax
    a851:	48 89 c7             	mov    %rax,%rdi
    a854:	e8 cb 41 01 00       	call   1ea24 <_ZNSt6vectorIdSaIdEEC1Ev>
    a859:	48 8b 45 b0          	mov    -0x50(%rbp),%rax
    a85d:	48 83 c0 10          	add    $0x10,%rax
    a861:	48 89 c7             	mov    %rax,%rdi
    a864:	e8 f1 de 00 00       	call   1875a <_ZNKSt6vectorIN3c106IValueESaIS1_EE4sizeEv>
    a869:	48 89 c2             	mov    %rax,%rdx
    a86c:	48 8b 45 b8          	mov    -0x48(%rbp),%rax
    a870:	48 89 d6             	mov    %rdx,%rsi
    a873:	48 89 c7             	mov    %rax,%rdi
    a876:	e8 95 8d 01 00       	call   23610 <_ZNSt6vectorIdSaIdEE7reserveEm>
    a87b:	48 8b 45 b0          	mov    -0x50(%rbp),%rax
    a87f:	48 83 c0 10          	add    $0x10,%rax
    a883:	48 89 45 d8          	mov    %rax,-0x28(%rbp)
    a887:	48 8b 45 d8          	mov    -0x28(%rbp),%rax
    a88b:	48 89 c7             	mov    %rax,%rdi
    a88e:	e8 91 3f 01 00       	call   1e824 <_ZNKSt6vectorIN3c106IValueESaIS1_EE5beginEv>
    a893:	48 89 45 c0          	mov    %rax,-0x40(%rbp)
    a897:	48 8b 45 d8          	mov    -0x28(%rbp),%rax
    a89b:	48 89 c7             	mov    %rax,%rdi
    a89e:	e8 5b e6 00 00       	call   18efe <_ZNKSt6vectorIN3c106IValueESaIS1_EE3endEv>
    a8a3:	48 89 45 c8          	mov    %rax,-0x38(%rbp)
    a8a7:	eb 44                	jmp    a8ed <_ZN3c10L24createVectorLikeFromListISt6vectorIdSaIdEEEET_PKNS_6detail8ListImplE+0xc0>
    a8a9:	48 8d 45 c0          	lea    -0x40(%rbp),%rax
    a8ad:	48 89 c7             	mov    %rax,%rdi
    a8b0:	e8 95 e6 00 00       	call   18f4a <_ZNK9__gnu_cxx17__normal_iteratorIPKN3c106IValueESt6vectorIS2_SaIS2_EEEdeEv>
    a8b5:	48 89 45 e0          	mov    %rax,-0x20(%rbp)
    a8b9:	48 8b 45 e0          	mov    -0x20(%rbp),%rax
    a8bd:	48 89 c7             	mov    %rax,%rdi
    a8c0:	e8 cf 54 00 00       	call   fd94 <_ZNKR3c106IValue2toIdEENS_6detail35ivalue_to_const_ref_overload_returnIT_E4typeEv>
    a8c5:	66 48 0f 7e c0       	movq   %xmm0,%rax
    a8ca:	48 89 45 d0          	mov    %rax,-0x30(%rbp)
    a8ce:	48 8d 55 d0          	lea    -0x30(%rbp),%rdx
    a8d2:	48 8b 45 b8          	mov    -0x48(%rbp),%rax
    a8d6:	48 89 d6             	mov    %rdx,%rsi
    a8d9:	48 89 c7             	mov    %rax,%rdi
    a8dc:	e8 49 8e 01 00       	call   2372a <_ZNSt6vectorIdSaIdEE9push_backEOd>
    a8e1:	48 8d 45 c0          	lea    -0x40(%rbp),%rax
    a8e5:	48 89 c7             	mov    %rax,%rdi
    a8e8:	e8 05 40 01 00       	call   1e8f2 <_ZN9__gnu_cxx17__normal_iteratorIPKN3c106IValueESt6vectorIS2_SaIS2_EEEppEv>
    a8ed:	48 8d 55 c8          	lea    -0x38(%rbp),%rdx
    a8f1:	48 8d 45 c0          	lea    -0x40(%rbp),%rax
    a8f5:	48 89 d6             	mov    %rdx,%rsi
    a8f8:	48 89 c7             	mov    %rax,%rdi
    a8fb:	e8 b7 3f 01 00       	call   1e8b7 <_ZN9__gnu_cxxneIPKN3c106IValueESt6vectorIS2_SaIS2_EEEEbRKNS_17__normal_iteratorIT_T0_EESD_>
    a900:	84 c0                	test   %al,%al
    a902:	75 a5                	jne    a8a9 <_ZN3c10L24createVectorLikeFromListISt6vectorIdSaIdEEEET_PKNS_6detail8ListImplE+0x7c>
    a904:	48 8b 45 e8          	mov    -0x18(%rbp),%rax
    a908:	64 48 2b 04 25 28 00 	sub    %fs:0x28,%rax
    a90f:	00 00 
    a911:	74 35                	je     a948 <_ZN3c10L24createVectorLikeFromListISt6vectorIdSaIdEEEET_PKNS_6detail8ListImplE+0x11b>
    a913:	eb 2e                	jmp    a943 <_ZN3c10L24createVectorLikeFromListISt6vectorIdSaIdEEEET_PKNS_6detail8ListImplE+0x116>
    a915:	48 89 c3             	mov    %rax,%rbx
    a918:	48 8b 45 b8          	mov    -0x48(%rbp),%rax
    a91c:	48 89 c7             	mov    %rax,%rdi
    a91f:	e8 04 df 00 00       	call   18828 <_ZNSt6vectorIdSaIdEED1Ev>
    a924:	48 89 d8             	mov    %rbx,%rax
    a927:	48 8b 55 e8          	mov    -0x18(%rbp),%rdx
    a92b:	64 48 2b 14 25 28 00 	sub    %fs:0x28,%rdx
    a932:	00 00 
    a934:	74 05                	je     a93b <_ZN3c10L24createVectorLikeFromListISt6vectorIdSaIdEEEET_PKNS_6detail8ListImplE+0x10e>
    a936:	e8 c5 e7 ff ff       	call   9100 <__stack_chk_fail@plt>
    a93b:	48 89 c7             	mov    %rax,%rdi
    a93e:	e8 7d e9 ff ff       	call   92c0 <_Unwind_Resume@plt>
    a943:	e8 b8 e7 ff ff       	call   9100 <__stack_chk_fail@plt>
    a948:	48 8b 45 b8          	mov    -0x48(%rbp),%rax
    a94c:	48 8b 5d f8          	mov    -0x8(%rbp),%rbx
    a950:	c9                   	leave
    a951:	c3                   	ret

000000000000a952 <_ZN3c10L24createVectorLikeFromListISt6vectorINS_7complexIdEESaIS3_EEEET_PKNS_6detail8ListImplE>:
    a952:	55                   	push   %rbp
    a953:	48 89 e5             	mov    %rsp,%rbp
    a956:	53                   	push   %rbx
    a957:	48 83 ec 58          	sub    $0x58,%rsp
    a95b:	48 89 7d a8          	mov    %rdi,-0x58(%rbp)
    a95f:	48 89 75 a0          	mov    %rsi,-0x60(%rbp)
    a963:	64 48 8b 04 25 28 00 	mov    %fs:0x28,%rax
    a96a:	00 00 
    a96c:	48 89 45 e8          	mov    %rax,-0x18(%rbp)
    a970:	31 c0                	xor    %eax,%eax
    a972:	48 8b 45 a8          	mov    -0x58(%rbp),%rax
    a976:	48 89 c7             	mov    %rax,%rdi
    a979:	e8 ec 40 01 00       	call   1ea6a <_ZNSt6vectorIN3c107complexIdEESaIS2_EEC1Ev>
    a97e:	48 8b 45 a0          	mov    -0x60(%rbp),%rax
    a982:	48 83 c0 10          	add    $0x10,%rax
    a986:	48 89 c7             	mov    %rax,%rdi
    a989:	e8 cc dd 00 00       	call   1875a <_ZNKSt6vectorIN3c106IValueESaIS1_EE4sizeEv>
    a98e:	48 89 c2             	mov    %rax,%rdx
    a991:	48 8b 45 a8          	mov    -0x58(%rbp),%rax
    a995:	48 89 d6             	mov    %rdx,%rsi
    a998:	48 89 c7             	mov    %rax,%rdi
    a99b:	e8 10 8e 01 00       	call   237b0 <_ZNSt6vectorIN3c107complexIdEESaIS2_EE7reserveEm>
    a9a0:	48 8b 45 a0          	mov    -0x60(%rbp),%rax
    a9a4:	48 83 c0 10          	add    $0x10,%rax
    a9a8:	48 89 45 c0          	mov    %rax,-0x40(%rbp)
    a9ac:	48 8b 45 c0          	mov    -0x40(%rbp),%rax
    a9b0:	48 89 c7             	mov    %rax,%rdi
    a9b3:	e8 6c 3e 01 00       	call   1e824 <_ZNKSt6vectorIN3c106IValueESaIS1_EE5beginEv>
    a9b8:	48 89 45 b0          	mov    %rax,-0x50(%rbp)
    a9bc:	48 8b 45 c0          	mov    -0x40(%rbp),%rax
    a9c0:	48 89 c7             	mov    %rax,%rdi
    a9c3:	e8 36 e5 00 00       	call   18efe <_ZNKSt6vectorIN3c106IValueESaIS1_EE3endEv>
    a9c8:	48 89 45 b8          	mov    %rax,-0x48(%rbp)
    a9cc:	eb 4d                	jmp    aa1b <_ZN3c10L24createVectorLikeFromListISt6vectorINS_7complexIdEESaIS3_EEEET_PKNS_6detail8ListImplE+0xc9>
    a9ce:	48 8d 45 b0          	lea    -0x50(%rbp),%rax
    a9d2:	48 89 c7             	mov    %rax,%rdi
    a9d5:	e8 70 e5 00 00       	call   18f4a <_ZNK9__gnu_cxx17__normal_iteratorIPKN3c106IValueESt6vectorIS2_SaIS2_EEEdeEv>
    a9da:	48 89 45 c8          	mov    %rax,-0x38(%rbp)
    a9de:	48 8b 45 c8          	mov    -0x38(%rbp),%rax
    a9e2:	48 89 c7             	mov    %rax,%rdi
    a9e5:	e8 c4 53 00 00       	call   fdae <_ZNKR3c106IValue2toINS_7complexIdEEEENS_6detail35ivalue_to_const_ref_overload_returnIT_E4typeEv>
    a9ea:	66 48 0f 7e c0       	movq   %xmm0,%rax
    a9ef:	66 0f 28 c1          	movapd %xmm1,%xmm0
    a9f3:	48 89 45 d0          	mov    %rax,-0x30(%rbp)
    a9f7:	f2 0f 11 45 d8       	movsd  %xmm0,-0x28(%rbp)
    a9fc:	48 8d 55 d0          	lea    -0x30(%rbp),%rdx
    aa00:	48 8b 45 a8          	mov    -0x58(%rbp),%rax
    aa04:	48 89 d6             	mov    %rdx,%rsi
    aa07:	48 89 c7             	mov    %rax,%rdi
    aa0a:	e8 bb 8e 01 00       	call   238ca <_ZNSt6vectorIN3c107complexIdEESaIS2_EE9push_backEOS2_>
    aa0f:	48 8d 45 b0          	lea    -0x50(%rbp),%rax
    aa13:	48 89 c7             	mov    %rax,%rdi
    aa16:	e8 d7 3e 01 00       	call   1e8f2 <_ZN9__gnu_cxx17__normal_iteratorIPKN3c106IValueESt6vectorIS2_SaIS2_EEEppEv>
    aa1b:	48 8d 55 b8          	lea    -0x48(%rbp),%rdx
    aa1f:	48 8d 45 b0          	lea    -0x50(%rbp),%rax
    aa23:	48 89 d6             	mov    %rdx,%rsi
    aa26:	48 89 c7             	mov    %rax,%rdi
    aa29:	e8 89 3e 01 00       	call   1e8b7 <_ZN9__gnu_cxxneIPKN3c106IValueESt6vectorIS2_SaIS2_EEEEbRKNS_17__normal_iteratorIT_T0_EESD_>
    aa2e:	84 c0                	test   %al,%al
    aa30:	75 9c                	jne    a9ce <_ZN3c10L24createVectorLikeFromListISt6vectorINS_7complexIdEESaIS3_EEEET_PKNS_6detail8ListImplE+0x7c>
    aa32:	48 8b 45 e8          	mov    -0x18(%rbp),%rax
    aa36:	64 48 2b 04 25 28 00 	sub    %fs:0x28,%rax
    aa3d:	00 00 
    aa3f:	74 35                	je     aa76 <_ZN3c10L24createVectorLikeFromListISt6vectorINS_7complexIdEESaIS3_EEEET_PKNS_6detail8ListImplE+0x124>
    aa41:	eb 2e                	jmp    aa71 <_ZN3c10L24createVectorLikeFromListISt6vectorINS_7complexIdEESaIS3_EEEET_PKNS_6detail8ListImplE+0x11f>
    aa43:	48 89 c3             	mov    %rax,%rbx
    aa46:	48 8b 45 a8          	mov    -0x58(%rbp),%rax
    aa4a:	48 89 c7             	mov    %rax,%rdi
    aa4d:	e8 2c de 00 00       	call   1887e <_ZNSt6vectorIN3c107complexIdEESaIS2_EED1Ev>
    aa52:	48 89 d8             	mov    %rbx,%rax
    aa55:	48 8b 55 e8          	mov    -0x18(%rbp),%rdx
    aa59:	64 48 2b 14 25 28 00 	sub    %fs:0x28,%rdx
    aa60:	00 00 
    aa62:	74 05                	je     aa69 <_ZN3c10L24createVectorLikeFromListISt6vectorINS_7complexIdEESaIS3_EEEET_PKNS_6detail8ListImplE+0x117>
    aa64:	e8 97 e6 ff ff       	call   9100 <__stack_chk_fail@plt>
    aa69:	48 89 c7             	mov    %rax,%rdi
    aa6c:	e8 4f e8 ff ff       	call   92c0 <_Unwind_Resume@plt>
    aa71:	e8 8a e6 ff ff       	call   9100 <__stack_chk_fail@plt>
    aa76:	48 8b 45 a8          	mov    -0x58(%rbp),%rax
    aa7a:	48 8b 5d f8          	mov    -0x8(%rbp),%rbx
    aa7e:	c9                   	leave
    aa7f:	c3                   	ret

000000000000aa80 <_ZN3c10L24createVectorLikeFromListISt6vectorIN2at6TensorESaIS3_EEEET_PKNS_6detail8ListImplE>:
    aa80:	55                   	push   %rbp
    aa81:	48 89 e5             	mov    %rsp,%rbp
    aa84:	53                   	push   %rbx
    aa85:	48 83 ec 48          	sub    $0x48,%rsp
    aa89:	48 89 7d b8          	mov    %rdi,-0x48(%rbp)
    aa8d:	48 89 75 b0          	mov    %rsi,-0x50(%rbp)
    aa91:	64 48 8b 04 25 28 00 	mov    %fs:0x28,%rax
    aa98:	00 00 
    aa9a:	48 89 45 e8          	mov    %rax,-0x18(%rbp)
    aa9e:	31 c0                	xor    %eax,%eax
    aaa0:	48 8b 45 b8          	mov    -0x48(%rbp),%rax
    aaa4:	48 89 c7             	mov    %rax,%rdi
    aaa7:	e8 be 58 00 00       	call   1036a <_ZNSt6vectorIN2at6TensorESaIS1_EEC1Ev>
    aaac:	48 8b 45 b0          	mov    -0x50(%rbp),%rax
    aab0:	48 83 c0 10          	add    $0x10,%rax
    aab4:	48 89 c7             	mov    %rax,%rdi
    aab7:	e8 9e dc 00 00       	call   1875a <_ZNKSt6vectorIN3c106IValueESaIS1_EE4sizeEv>
    aabc:	48 89 c2             	mov    %rax,%rdx
    aabf:	48 8b 45 b8          	mov    -0x48(%rbp),%rax
    aac3:	48 89 d6             	mov    %rdx,%rsi
    aac6:	48 89 c7             	mov    %rax,%rdi
    aac9:	e8 3c f6 00 00       	call   1a10a <_ZNSt6vectorIN2at6TensorESaIS1_EE7reserveEm>
    aace:	48 8b 45 b0          	mov    -0x50(%rbp),%rax
    aad2:	48 83 c0 10          	add    $0x10,%rax
    aad6:	48 89 45 d8          	mov    %rax,-0x28(%rbp)
    aada:	48 8b 45 d8          	mov    -0x28(%rbp),%rax
    aade:	48 89 c7             	mov    %rax,%rdi
    aae1:	e8 3e 3d 01 00       	call   1e824 <_ZNKSt6vectorIN3c106IValueESaIS1_EE5beginEv>
    aae6:	48 89 45 c8          	mov    %rax,-0x38(%rbp)
    aaea:	48 8b 45 d8          	mov    -0x28(%rbp),%rax
    aaee:	48 89 c7             	mov    %rax,%rdi
    aaf1:	e8 08 e4 00 00       	call   18efe <_ZNKSt6vectorIN3c106IValueESaIS1_EE3endEv>
    aaf6:	48 89 45 d0          	mov    %rax,-0x30(%rbp)
    aafa:	eb 3a                	jmp    ab36 <_ZN3c10L24createVectorLikeFromListISt6vectorIN2at6TensorESaIS3_EEEET_PKNS_6detail8ListImplE+0xb6>
    aafc:	48 8d 45 c8          	lea    -0x38(%rbp),%rax
    ab00:	48 89 c7             	mov    %rax,%rdi
    ab03:	e8 42 e4 00 00       	call   18f4a <_ZNK9__gnu_cxx17__normal_iteratorIPKN3c106IValueESt6vectorIS2_SaIS2_EEEdeEv>
    ab08:	48 89 45 e0          	mov    %rax,-0x20(%rbp)
    ab0c:	48 8b 45 e0          	mov    -0x20(%rbp),%rax
    ab10:	48 89 c7             	mov    %rax,%rdi
    ab13:	e8 62 52 00 00       	call   fd7a <_ZNKR3c106IValue2toIN2at6TensorEEENS_6detail35ivalue_to_const_ref_overload_returnIT_E4typeEv>
    ab18:	48 89 c2             	mov    %rax,%rdx
    ab1b:	48 8b 45 b8          	mov    -0x48(%rbp),%rax
    ab1f:	48 89 d6             	mov    %rdx,%rsi
    ab22:	48 89 c7             	mov    %rax,%rdi
    ab25:	e8 b8 05 01 00       	call   1b0e2 <_ZNSt6vectorIN2at6TensorESaIS1_EE9push_backERKS1_>
    ab2a:	48 8d 45 c8          	lea    -0x38(%rbp),%rax
    ab2e:	48 89 c7             	mov    %rax,%rdi
    ab31:	e8 bc 3d 01 00       	call   1e8f2 <_ZN9__gnu_cxx17__normal_iteratorIPKN3c106IValueESt6vectorIS2_SaIS2_EEEppEv>
    ab36:	48 8d 55 d0          	lea    -0x30(%rbp),%rdx
    ab3a:	48 8d 45 c8          	lea    -0x38(%rbp),%rax
    ab3e:	48 89 d6             	mov    %rdx,%rsi
    ab41:	48 89 c7             	mov    %rax,%rdi
    ab44:	e8 6e 3d 01 00       	call   1e8b7 <_ZN9__gnu_cxxneIPKN3c106IValueESt6vectorIS2_SaIS2_EEEEbRKNS_17__normal_iteratorIT_T0_EESD_>
    ab49:	84 c0                	test   %al,%al
    ab4b:	75 af                	jne    aafc <_ZN3c10L24createVectorLikeFromListISt6vectorIN2at6TensorESaIS3_EEEET_PKNS_6detail8ListImplE+0x7c>
    ab4d:	48 8b 45 e8          	mov    -0x18(%rbp),%rax
    ab51:	64 48 2b 04 25 28 00 	sub    %fs:0x28,%rax
    ab58:	00 00 
    ab5a:	74 35                	je     ab91 <_ZN3c10L24createVectorLikeFromListISt6vectorIN2at6TensorESaIS3_EEEET_PKNS_6detail8ListImplE+0x111>
    ab5c:	eb 2e                	jmp    ab8c <_ZN3c10L24createVectorLikeFromListISt6vectorIN2at6TensorESaIS3_EEEET_PKNS_6detail8ListImplE+0x10c>
    ab5e:	48 89 c3             	mov    %rax,%rbx
    ab61:	48 8b 45 b8          	mov    -0x48(%rbp),%rax
    ab65:	48 89 c7             	mov    %rax,%rdi
    ab68:	e8 1f d1 00 00       	call   17c8c <_ZNSt6vectorIN2at6TensorESaIS1_EED1Ev>
    ab6d:	48 89 d8             	mov    %rbx,%rax
    ab70:	48 8b 55 e8          	mov    -0x18(%rbp),%rdx
    ab74:	64 48 2b 14 25 28 00 	sub    %fs:0x28,%rdx
    ab7b:	00 00 
    ab7d:	74 05                	je     ab84 <_ZN3c10L24createVectorLikeFromListISt6vectorIN2at6TensorESaIS3_EEEET_PKNS_6detail8ListImplE+0x104>
    ab7f:	e8 7c e5 ff ff       	call   9100 <__stack_chk_fail@plt>
    ab84:	48 89 c7             	mov    %rax,%rdi
    ab87:	e8 34 e7 ff ff       	call   92c0 <_Unwind_Resume@plt>
    ab8c:	e8 6f e5 ff ff       	call   9100 <__stack_chk_fail@plt>
    ab91:	48 8b 45 b8          	mov    -0x48(%rbp),%rax
    ab95:	48 8b 5d f8          	mov    -0x8(%rbp),%rbx
    ab99:	c9                   	leave
    ab9a:	c3                   	ret

000000000000ab9b <_ZN3c10L24createVectorLikeFromListISt6vectorISt8optionalIN2at6TensorEESaIS5_EEEET_PKNS_6detail8ListImplE>:
    ab9b:	55                   	push   %rbp
    ab9c:	48 89 e5             	mov    %rsp,%rbp
    ab9f:	53                   	push   %rbx
    aba0:	48 83 ec 58          	sub    $0x58,%rsp
    aba4:	48 89 7d a8          	mov    %rdi,-0x58(%rbp)
    aba8:	48 89 75 a0          	mov    %rsi,-0x60(%rbp)
    abac:	64 48 8b 04 25 28 00 	mov    %fs:0x28,%rax
    abb3:	00 00 
    abb5:	48 89 45 e8          	mov    %rax,-0x18(%rbp)
    abb9:	31 c0                	xor    %eax,%eax
    abbb:	48 8b 45 a8          	mov    -0x58(%rbp),%rax
    abbf:	48 89 c7             	mov    %rax,%rdi
    abc2:	e8 15 64 00 00       	call   10fdc <_ZNSt6vectorISt8optionalIN2at6TensorEESaIS3_EEC1Ev>
    abc7:	48 8b 45 a0          	mov    -0x60(%rbp),%rax
    abcb:	48 83 c0 10          	add    $0x10,%rax
    abcf:	48 89 c7             	mov    %rax,%rdi
    abd2:	e8 83 db 00 00       	call   1875a <_ZNKSt6vectorIN3c106IValueESaIS1_EE4sizeEv>
    abd7:	48 89 c2             	mov    %rax,%rdx
    abda:	48 8b 45 a8          	mov    -0x58(%rbp),%rax
    abde:	48 89 d6             	mov    %rdx,%rsi
    abe1:	48 89 c7             	mov    %rax,%rdi
    abe4:	e8 39 8d 01 00       	call   23922 <_ZNSt6vectorISt8optionalIN2at6TensorEESaIS3_EE7reserveEm>
    abe9:	48 8b 45 a0          	mov    -0x60(%rbp),%rax
    abed:	48 83 c0 10          	add    $0x10,%rax
    abf1:	48 89 45 c0          	mov    %rax,-0x40(%rbp)
    abf5:	48 8b 45 c0          	mov    -0x40(%rbp),%rax
    abf9:	48 89 c7             	mov    %rax,%rdi
    abfc:	e8 23 3c 01 00       	call   1e824 <_ZNKSt6vectorIN3c106IValueESaIS1_EE5beginEv>
    ac01:	48 89 45 b0          	mov    %rax,-0x50(%rbp)
    ac05:	48 8b 45 c0          	mov    -0x40(%rbp),%rax
    ac09:	48 89 c7             	mov    %rax,%rdi
    ac0c:	e8 ed e2 00 00       	call   18efe <_ZNKSt6vectorIN3c106IValueESaIS1_EE3endEv>
    ac11:	48 89 45 b8          	mov    %rax,-0x48(%rbp)
    ac15:	eb 4e                	jmp    ac65 <_ZN3c10L24createVectorLikeFromListISt6vectorISt8optionalIN2at6TensorEESaIS5_EEEET_PKNS_6detail8ListImplE+0xca>
    ac17:	48 8d 45 b0          	lea    -0x50(%rbp),%rax
    ac1b:	48 89 c7             	mov    %rax,%rdi
    ac1e:	e8 27 e3 00 00       	call   18f4a <_ZNK9__gnu_cxx17__normal_iteratorIPKN3c106IValueESt6vectorIS2_SaIS2_EEEdeEv>
    ac23:	48 89 45 c8          	mov    %rax,-0x38(%rbp)
    ac27:	48 8d 45 d0          	lea    -0x30(%rbp),%rax
    ac2b:	48 8b 55 c8          	mov    -0x38(%rbp),%rdx
    ac2f:	48 89 d6             	mov    %rdx,%rsi
    ac32:	48 89 c7             	mov    %rax,%rdi
    ac35:	e8 b0 43 01 00       	call   1efea <_ZNKR3c106IValue2toISt8optionalIN2at6TensorEEEENS_6detail35ivalue_to_const_ref_overload_returnIT_E4typeEv>
    ac3a:	48 8d 55 d0          	lea    -0x30(%rbp),%rdx
    ac3e:	48 8b 45 a8          	mov    -0x58(%rbp),%rax
    ac42:	48 89 d6             	mov    %rdx,%rsi
    ac45:	48 89 c7             	mov    %rax,%rdi
    ac48:	e8 ef 8d 01 00       	call   23a3c <_ZNSt6vectorISt8optionalIN2at6TensorEESaIS3_EE9push_backEOS3_>
    ac4d:	48 8d 45 d0          	lea    -0x30(%rbp),%rax
    ac51:	48 89 c7             	mov    %rax,%rdi
    ac54:	e8 f7 31 00 00       	call   de50 <_ZNSt8optionalIN2at6TensorEED1Ev>
    ac59:	48 8d 45 b0          	lea    -0x50(%rbp),%rax
    ac5d:	48 89 c7             	mov    %rax,%rdi
    ac60:	e8 8d 3c 01 00       	call   1e8f2 <_ZN9__gnu_cxx17__normal_iteratorIPKN3c106IValueESt6vectorIS2_SaIS2_EEEppEv>
    ac65:	48 8d 55 b8          	lea    -0x48(%rbp),%rdx
    ac69:	48 8d 45 b0          	lea    -0x50(%rbp),%rax
    ac6d:	48 89 d6             	mov    %rdx,%rsi
    ac70:	48 89 c7             	mov    %rax,%rdi
    ac73:	e8 3f 3c 01 00       	call   1e8b7 <_ZN9__gnu_cxxneIPKN3c106IValueESt6vectorIS2_SaIS2_EEEEbRKNS_17__normal_iteratorIT_T0_EESD_>
    ac78:	84 c0                	test   %al,%al
    ac7a:	75 9b                	jne    ac17 <_ZN3c10L24createVectorLikeFromListISt6vectorISt8optionalIN2at6TensorEESaIS5_EEEET_PKNS_6detail8ListImplE+0x7c>
    ac7c:	48 8b 45 e8          	mov    -0x18(%rbp),%rax
    ac80:	64 48 2b 04 25 28 00 	sub    %fs:0x28,%rax
    ac87:	00 00 
    ac89:	74 46                	je     acd1 <_ZN3c10L24createVectorLikeFromListISt6vectorISt8optionalIN2at6TensorEESaIS5_EEEET_PKNS_6detail8ListImplE+0x136>
    ac8b:	eb 3f                	jmp    accc <_ZN3c10L24createVectorLikeFromListISt6vectorISt8optionalIN2at6TensorEESaIS5_EEEET_PKNS_6detail8ListImplE+0x131>
    ac8d:	48 89 c3             	mov    %rax,%rbx
    ac90:	48 8d 45 d0          	lea    -0x30(%rbp),%rax
    ac94:	48 89 c7             	mov    %rax,%rdi
    ac97:	e8 b4 31 00 00       	call   de50 <_ZNSt8optionalIN2at6TensorEED1Ev>
    ac9c:	eb 03                	jmp    aca1 <_ZN3c10L24createVectorLikeFromListISt6vectorISt8optionalIN2at6TensorEESaIS5_EEEET_PKNS_6detail8ListImplE+0x106>
    ac9e:	48 89 c3             	mov    %rax,%rbx
    aca1:	48 8b 45 a8          	mov    -0x58(%rbp),%rax
    aca5:	48 89 c7             	mov    %rax,%rdi
    aca8:	e8 27 dc 00 00       	call   188d4 <_ZNSt6vectorISt8optionalIN2at6TensorEESaIS3_EED1Ev>
    acad:	48 89 d8             	mov    %rbx,%rax
    acb0:	48 8b 55 e8          	mov    -0x18(%rbp),%rdx
    acb4:	64 48 2b 14 25 28 00 	sub    %fs:0x28,%rdx
    acbb:	00 00 
    acbd:	74 05                	je     acc4 <_ZN3c10L24createVectorLikeFromListISt6vectorISt8optionalIN2at6TensorEESaIS5_EEEET_PKNS_6detail8ListImplE+0x129>
    acbf:	e8 3c e4 ff ff       	call   9100 <__stack_chk_fail@plt>
    acc4:	48 89 c7             	mov    %rax,%rdi
    acc7:	e8 f4 e5 ff ff       	call   92c0 <_Unwind_Resume@plt>
    accc:	e8 2f e4 ff ff       	call   9100 <__stack_chk_fail@plt>
    acd1:	48 8b 45 a8          	mov    -0x58(%rbp),%rax
    acd5:	48 8b 5d f8          	mov    -0x8(%rbp),%rbx
    acd9:	c9                   	leave
    acda:	c3                   	ret

000000000000acdb <_ZNSt10_Hash_impl4hashEPKvmm>:
    acdb:	55                   	push   %rbp
    acdc:	48 89 e5             	mov    %rsp,%rbp
    acdf:	48 83 ec 20          	sub    $0x20,%rsp
    ace3:	48 89 7d f8          	mov    %rdi,-0x8(%rbp)
    ace7:	48 89 75 f0          	mov    %rsi,-0x10(%rbp)
    aceb:	48 89 55 e8          	mov    %rdx,-0x18(%rbp)
    acef:	48 8b 55 e8          	mov    -0x18(%rbp),%rdx
    acf3:	48 8b 4d f0          	mov    -0x10(%rbp),%rcx
    acf7:	48 8b 45 f8          	mov    -0x8(%rbp),%rax
    acfb:	48 89 ce             	mov    %rcx,%rsi
    acfe:	48 89 c7             	mov    %rax,%rdi
    ad01:	e8 1a e5 ff ff       	call   9220 <_ZSt11_Hash_bytesPKvmm@plt>
    ad06:	c9                   	leave
    ad07:	c3                   	ret

000000000000ad08 <_ZNSt9exceptionC1Ev>:
    ad08:	55                   	push   %rbp
    ad09:	48 89 e5             	mov    %rsp,%rbp
    ad0c:	48 89 7d f8          	mov    %rdi,-0x8(%rbp)
    ad10:	48 8d 15 19 88 05 00 	lea    0x58819(%rip),%rdx        # 63530 <_ZTVSt9exception@GLIBCXX_3.4+0x10>
    ad17:	48 8b 45 f8          	mov    -0x8(%rbp),%rax
    ad1b:	48 89 10             	mov    %rdx,(%rax)
    ad1e:	90                   	nop
    ad1f:	5d                   	pop    %rbp
    ad20:	c3                   	ret

000000000000ad21 <_ZnwmPv>:
    ad21:	55                   	push   %rbp
    ad22:	48 89 e5             	mov    %rsp,%rbp
    ad25:	48 89 7d f8          	mov    %rdi,-0x8(%rbp)
    ad29:	48 89 75 f0          	mov    %rsi,-0x10(%rbp)
    ad2d:	48 8b 45 f0          	mov    -0x10(%rbp),%rax
    ad31:	5d                   	pop    %rbp
    ad32:	c3                   	ret

000000000000ad33 <_ZdlPvS_>:
    ad33:	55                   	push   %rbp
    ad34:	48 89 e5             	mov    %rsp,%rbp
    ad37:	48 89 7d f8          	mov    %rdi,-0x8(%rbp)
    ad3b:	48 89 75 f0          	mov    %rsi,-0x10(%rbp)
    ad3f:	90                   	nop
    ad40:	5d                   	pop    %rbp
    ad41:	c3                   	ret

000000000000ad42 <_ZNKSt9type_info4nameEv>:
    ad42:	55                   	push   %rbp
    ad43:	48 89 e5             	mov    %rsp,%rbp
    ad46:	48 89 7d f8          	mov    %rdi,-0x8(%rbp)
    ad4a:	48 8b 45 f8          	mov    -0x8(%rbp),%rax
    ad4e:	48 8b 40 08          	mov    0x8(%rax),%rax
    ad52:	0f b6 00             	movzbl (%rax),%eax
    ad55:	3c 2a                	cmp    $0x2a,%al
    ad57:	75 0e                	jne    ad67 <_ZNKSt9type_info4nameEv+0x25>
    ad59:	48 8b 45 f8          	mov    -0x8(%rbp),%rax
    ad5d:	48 8b 40 08          	mov    0x8(%rax),%rax
    ad61:	48 83 c0 01          	add    $0x1,%rax
    ad65:	eb 08                	jmp    ad6f <_ZNKSt9type_info4nameEv+0x2d>
    ad67:	48 8b 45 f8          	mov    -0x8(%rbp),%rax
    ad6b:	48 8b 40 08          	mov    0x8(%rax),%rax
    ad6f:	5d                   	pop    %rbp
    ad70:	c3                   	ret
    ad71:	90                   	nop

000000000000ad72 <_ZNKSt9type_infoeqERKS_>:
    ad72:	55                   	push   %rbp
    ad73:	48 89 e5             	mov    %rsp,%rbp
    ad76:	48 83 ec 10          	sub    $0x10,%rsp
    ad7a:	48 89 7d f8          	mov    %rdi,-0x8(%rbp)
    ad7e:	48 89 75 f0          	mov    %rsi,-0x10(%rbp)
    ad82:	b8 00 00 00 00       	mov    $0x0,%eax
    ad87:	84 c0                	test   %al,%al
    ad89:	74 0d                	je     ad98 <_ZNKSt9type_infoeqERKS_+0x26>
    ad8b:	48 8b 45 f8          	mov    -0x8(%rbp),%rax
    ad8f:	48 3b 45 f0          	cmp    -0x10(%rbp),%rax
    ad93:	0f 94 c0             	sete   %al
    ad96:	eb 5e                	jmp    adf6 <_ZNKSt9type_infoeqERKS_+0x84>
    ad98:	48 8b 45 f8          	mov    -0x8(%rbp),%rax
    ad9c:	48 8b 50 08          	mov    0x8(%rax),%rdx
    ada0:	48 8b 45 f0          	mov    -0x10(%rbp),%rax
    ada4:	48 8b 40 08          	mov    0x8(%rax),%rax
    ada8:	48 39 c2             	cmp    %rax,%rdx
    adab:	75 07                	jne    adb4 <_ZNKSt9type_infoeqERKS_+0x42>
    adad:	b8 01 00 00 00       	mov    $0x1,%eax
    adb2:	eb 42                	jmp    adf6 <_ZNKSt9type_infoeqERKS_+0x84>
    adb4:	48 8b 45 f8          	mov    -0x8(%rbp),%rax
    adb8:	48 8b 40 08          	mov    0x8(%rax),%rax
    adbc:	0f b6 00             	movzbl (%rax),%eax
    adbf:	3c 2a                	cmp    $0x2a,%al
    adc1:	74 2d                	je     adf0 <_ZNKSt9type_infoeqERKS_+0x7e>
    adc3:	48 8b 45 f0          	mov    -0x10(%rbp),%rax
    adc7:	48 89 c7             	mov    %rax,%rdi
    adca:	e8 73 ff ff ff       	call   ad42 <_ZNKSt9type_info4nameEv>
    adcf:	48 89 c2             	mov    %rax,%rdx
    add2:	48 8b 45 f8          	mov    -0x8(%rbp),%rax
    add6:	48 8b 40 08          	mov    0x8(%rax),%rax
    adda:	48 89 d6             	mov    %rdx,%rsi
    addd:	48 89 c7             	mov    %rax,%rdi
    ade0:	e8 eb e9 ff ff       	call   97d0 <strcmp@plt>
    ade5:	85 c0                	test   %eax,%eax
    ade7:	75 07                	jne    adf0 <_ZNKSt9type_infoeqERKS_+0x7e>
    ade9:	b8 01 00 00 00       	mov    $0x1,%eax
    adee:	eb 05                	jmp    adf5 <_ZNKSt9type_infoeqERKS_+0x83>
    adf0:	b8 00 00 00 00       	mov    $0x0,%eax
    adf5:	90                   	nop
    adf6:	c9                   	leave
    adf7:	c3                   	ret

000000000000adf8 <_ZNSt9_Any_data9_M_accessEv>:
    adf8:	55                   	push   %rbp
    adf9:	48 89 e5             	mov    %rsp,%rbp
    adfc:	48 89 7d f8          	mov    %rdi,-0x8(%rbp)
    ae00:	48 8b 45 f8          	mov    -0x8(%rbp),%rax
    ae04:	5d                   	pop    %rbp
    ae05:	c3                   	ret

000000000000ae06 <_ZNKSt9_Any_data9_M_accessEv>:
    ae06:	55                   	push   %rbp
    ae07:	48 89 e5             	mov    %rsp,%rbp
    ae0a:	48 89 7d f8          	mov    %rdi,-0x8(%rbp)
    ae0e:	48 8b 45 f8          	mov    -0x8(%rbp),%rax
    ae12:	5d                   	pop    %rbp
    ae13:	c3                   	ret

000000000000ae14 <_ZNSt14_Function_baseD1Ev>:
    ae14:	55                   	push   %rbp
    ae15:	48 89 e5             	mov    %rsp,%rbp
    ae18:	48 83 ec 10          	sub    $0x10,%rsp
    ae1c:	48 89 7d f8          	mov    %rdi,-0x8(%rbp)
    ae20:	48 8b 45 f8          	mov    -0x8(%rbp),%rax
    ae24:	48 8b 40 10          	mov    0x10(%rax),%rax
    ae28:	48 85 c0             	test   %rax,%rax
    ae2b:	74 1e                	je     ae4b <_ZNSt14_Function_baseD1Ev+0x37>
    ae2d:	48 8b 45 f8          	mov    -0x8(%rbp),%rax
    ae31:	4c 8b 40 10          	mov    0x10(%rax),%r8
    ae35:	48 8b 4d f8          	mov    -0x8(%rbp),%rcx
    ae39:	48 8b 45 f8          	mov    -0x8(%rbp),%rax
    ae3d:	ba 03 00 00 00       	mov    $0x3,%edx
    ae42:	48 89 ce             	mov    %rcx,%rsi
    ae45:	48 89 c7             	mov    %rax,%rdi
    ae48:	41 ff d0             	call   *%r8
    ae4b:	90                   	nop
    ae4c:	c9                   	leave
    ae4d:	c3                   	ret

000000000000ae4e <_ZNKSt14_Function_base8_M_emptyEv>:
    ae4e:	55                   	push   %rbp
    ae4f:	48 89 e5             	mov    %rsp,%rbp
    ae52:	48 89 7d f8          	mov    %rdi,-0x8(%rbp)
    ae56:	48 8b 45 f8          	mov    -0x8(%rbp),%rax
    ae5a:	48 8b 40 10          	mov    0x10(%rax),%rax
    ae5e:	48 85 c0             	test   %rax,%rax
    ae61:	0f 94 c0             	sete   %al
    ae64:	5d                   	pop    %rbp
    ae65:	c3                   	ret

000000000000ae66 <_ZNSt8__detail15_Hash_node_baseC1Ev>:
    ae66:	55                   	push   %rbp
    ae67:	48 89 e5             	mov    %rsp,%rbp
    ae6a:	48 89 7d f8          	mov    %rdi,-0x8(%rbp)
    ae6e:	48 8b 45 f8          	mov    -0x8(%rbp),%rax
    ae72:	48 c7 00 00 00 00 00 	movq   $0x0,(%rax)
    ae79:	90                   	nop
    ae7a:	5d                   	pop    %rbp
    ae7b:	c3                   	ret

000000000000ae7c <_ZNKSt8__detail18_Mod_range_hashingclEmm>:
    ae7c:	55                   	push   %rbp
    ae7d:	48 89 e5             	mov    %rsp,%rbp
    ae80:	48 89 7d f8          	mov    %rdi,-0x8(%rbp)
    ae84:	48 89 75 f0          	mov    %rsi,-0x10(%rbp)
    ae88:	48 89 55 e8          	mov    %rdx,-0x18(%rbp)
    ae8c:	48 8b 45 f0          	mov    -0x10(%rbp),%rax
    ae90:	ba 00 00 00 00       	mov    $0x0,%edx
    ae95:	48 f7 75 e8          	divq   -0x18(%rbp)
    ae99:	48 89 d0             	mov    %rdx,%rax
    ae9c:	5d                   	pop    %rbp
    ae9d:	c3                   	ret

000000000000ae9e <_ZNKSt8__detail20_Prime_rehash_policy8_M_stateEv>:
    ae9e:	55                   	push   %rbp
    ae9f:	48 89 e5             	mov    %rsp,%rbp
    aea2:	48 89 7d f8          	mov    %rdi,-0x8(%rbp)
    aea6:	48 8b 45 f8          	mov    -0x8(%rbp),%rax
    aeaa:	48 8b 40 08          	mov    0x8(%rax),%rax
    aeae:	5d                   	pop    %rbp
    aeaf:	c3                   	ret

000000000000aeb0 <_ZNSt8__detail20_Prime_rehash_policy8_M_resetEm>:
    aeb0:	55                   	push   %rbp
    aeb1:	48 89 e5             	mov    %rsp,%rbp
    aeb4:	48 89 7d f8          	mov    %rdi,-0x8(%rbp)
    aeb8:	48 89 75 f0          	mov    %rsi,-0x10(%rbp)
    aebc:	48 8b 45 f8          	mov    -0x8(%rbp),%rax
    aec0:	48 8b 55 f0          	mov    -0x10(%rbp),%rdx
    aec4:	48 89 50 08          	mov    %rdx,0x8(%rax)
    aec8:	90                   	nop
    aec9:	5d                   	pop    %rbp
    aeca:	c3                   	ret

000000000000aecb <_ZSt3minImERKT_S2_S2_>:
    aecb:	55                   	push   %rbp
    aecc:	48 89 e5             	mov    %rsp,%rbp
    aecf:	48 89 7d f8          	mov    %rdi,-0x8(%rbp)
    aed3:	48 89 75 f0          	mov    %rsi,-0x10(%rbp)
    aed7:	48 8b 45 f0          	mov    -0x10(%rbp),%rax
    aedb:	48 8b 10             	mov    (%rax),%rdx
    aede:	48 8b 45 f8          	mov    -0x8(%rbp),%rax
    aee2:	48 8b 00             	mov    (%rax),%rax
    aee5:	48 39 c2             	cmp    %rax,%rdx
    aee8:	73 06                	jae    aef0 <_ZSt3minImERKT_S2_S2_+0x25>
    aeea:	48 8b 45 f0          	mov    -0x10(%rbp),%rax
    aeee:	eb 04                	jmp    aef4 <_ZSt3minImERKT_S2_S2_+0x29>
    aef0:	48 8b 45 f8          	mov    -0x8(%rbp),%rax
    aef4:	5d                   	pop    %rbp
    aef5:	c3                   	ret

000000000000aef6 <_ZNSt15__exception_ptr13exception_ptrC1EOS0_>:
    aef6:	55                   	push   %rbp
    aef7:	48 89 e5             	mov    %rsp,%rbp
    aefa:	48 89 7d f8          	mov    %rdi,-0x8(%rbp)
    aefe:	48 89 75 f0          	mov    %rsi,-0x10(%rbp)
    af02:	48 8b 45 f0          	mov    -0x10(%rbp),%rax
    af06:	48 8b 10             	mov    (%rax),%rdx
    af09:	48 8b 45 f8          	mov    -0x8(%rbp),%rax
    af0d:	48 89 10             	mov    %rdx,(%rax)
    af10:	48 8b 45 f0          	mov    -0x10(%rbp),%rax
    af14:	48 c7 00 00 00 00 00 	movq   $0x0,(%rax)
    af1b:	90                   	nop
    af1c:	5d                   	pop    %rbp
    af1d:	c3                   	ret

000000000000af1e <_ZNSt15__exception_ptr13exception_ptraSEOS0_>:
    af1e:	55                   	push   %rbp
    af1f:	48 89 e5             	mov    %rsp,%rbp
    af22:	48 83 ec 20          	sub    $0x20,%rsp
    af26:	48 89 7d e8          	mov    %rdi,-0x18(%rbp)
    af2a:	48 89 75 e0          	mov    %rsi,-0x20(%rbp)
    af2e:	64 48 8b 04 25 28 00 	mov    %fs:0x28,%rax
    af35:	00 00 
    af37:	48 89 45 f8          	mov    %rax,-0x8(%rbp)
    af3b:	31 c0                	xor    %eax,%eax
    af3d:	48 8b 55 e0          	mov    -0x20(%rbp),%rdx
    af41:	48 8d 45 f0          	lea    -0x10(%rbp),%rax
    af45:	48 89 d6             	mov    %rdx,%rsi
    af48:	48 89 c7             	mov    %rax,%rdi
    af4b:	e8 a6 ff ff ff       	call   aef6 <_ZNSt15__exception_ptr13exception_ptrC1EOS0_>
    af50:	48 8b 55 e8          	mov    -0x18(%rbp),%rdx
    af54:	48 8d 45 f0          	lea    -0x10(%rbp),%rax
    af58:	48 89 d6             	mov    %rdx,%rsi
    af5b:	48 89 c7             	mov    %rax,%rdi
    af5e:	e8 b7 00 00 00       	call   b01a <_ZNSt15__exception_ptr13exception_ptr4swapERS0_>
    af63:	48 8d 45 f0          	lea    -0x10(%rbp),%rax
    af67:	48 89 c7             	mov    %rax,%rdi
    af6a:	e8 83 00 00 00       	call   aff2 <_ZNSt15__exception_ptr13exception_ptrD1Ev>
    af6f:	48 8b 45 e8          	mov    -0x18(%rbp),%rax
    af73:	48 8b 55 f8          	mov    -0x8(%rbp),%rdx
    af77:	64 48 2b 14 25 28 00 	sub    %fs:0x28,%rdx
    af7e:	00 00 
    af80:	74 05                	je     af87 <_ZNSt15__exception_ptr13exception_ptraSEOS0_+0x69>
    af82:	e8 79 e1 ff ff       	call   9100 <__stack_chk_fail@plt>
    af87:	c9                   	leave
    af88:	c3                   	ret
    af89:	90                   	nop

000000000000af8a <_ZNKSt15__exception_ptr13exception_ptrcvbEv>:
    af8a:	55                   	push   %rbp
    af8b:	48 89 e5             	mov    %rsp,%rbp
    af8e:	48 89 7d f8          	mov    %rdi,-0x8(%rbp)
    af92:	48 8b 45 f8          	mov    -0x8(%rbp),%rax
    af96:	48 8b 00             	mov    (%rax),%rax
    af99:	48 85 c0             	test   %rax,%rax
    af9c:	0f 95 c0             	setne  %al
    af9f:	5d                   	pop    %rbp
    afa0:	c3                   	ret
    afa1:	90                   	nop

000000000000afa2 <_ZNSt15__exception_ptr13exception_ptrC1Ev>:
    afa2:	55                   	push   %rbp
    afa3:	48 89 e5             	mov    %rsp,%rbp
    afa6:	48 89 7d f8          	mov    %rdi,-0x8(%rbp)
    afaa:	48 8b 45 f8          	mov    -0x8(%rbp),%rax
    afae:	48 c7 00 00 00 00 00 	movq   $0x0,(%rax)
    afb5:	90                   	nop
    afb6:	5d                   	pop    %rbp
    afb7:	c3                   	ret

000000000000afb8 <_ZNSt15__exception_ptr13exception_ptrC1ERKS0_>:
    afb8:	55                   	push   %rbp
    afb9:	48 89 e5             	mov    %rsp,%rbp
    afbc:	48 83 ec 10          	sub    $0x10,%rsp
    afc0:	48 89 7d f8          	mov    %rdi,-0x8(%rbp)
    afc4:	48 89 75 f0          	mov    %rsi,-0x10(%rbp)
    afc8:	48 8b 45 f0          	mov    -0x10(%rbp),%rax
    afcc:	48 8b 10             	mov    (%rax),%rdx
    afcf:	48 8b 45 f8          	mov    -0x8(%rbp),%rax
    afd3:	48 89 10             	mov    %rdx,(%rax)
    afd6:	48 8b 45 f8          	mov    -0x8(%rbp),%rax
    afda:	48 8b 00             	mov    (%rax),%rax
    afdd:	48 85 c0             	test   %rax,%rax
    afe0:	74 0c                	je     afee <_ZNSt15__exception_ptr13exception_ptrC1ERKS0_+0x36>
    afe2:	48 8b 45 f8          	mov    -0x8(%rbp),%rax
    afe6:	48 89 c7             	mov    %rax,%rdi
    afe9:	e8 12 e6 ff ff       	call   9600 <_ZNSt15__exception_ptr13exception_ptr9_M_addrefEv@plt>
    afee:	90                   	nop
    afef:	c9                   	leave
    aff0:	c3                   	ret
    aff1:	90                   	nop

000000000000aff2 <_ZNSt15__exception_ptr13exception_ptrD1Ev>:
    aff2:	55                   	push   %rbp
    aff3:	48 89 e5             	mov    %rsp,%rbp
    aff6:	48 83 ec 10          	sub    $0x10,%rsp
    affa:	48 89 7d f8          	mov    %rdi,-0x8(%rbp)
    affe:	48 8b 45 f8          	mov    -0x8(%rbp),%rax
    b002:	48 8b 00             	mov    (%rax),%rax
    b005:	48 85 c0             	test   %rax,%rax
    b008:	74 0c                	je     b016 <_ZNSt15__exception_ptr13exception_ptrD1Ev+0x24>
    b00a:	48 8b 45 f8          	mov    -0x8(%rbp),%rax
    b00e:	48 89 c7             	mov    %rax,%rdi
    b011:	e8 da e5 ff ff       	call   95f0 <_ZNSt15__exception_ptr13exception_ptr10_M_releaseEv@plt>
    b016:	90                   	nop
    b017:	c9                   	leave
    b018:	c3                   	ret
    b019:	90                   	nop

000000000000b01a <_ZNSt15__exception_ptr13exception_ptr4swapERS0_>:
    b01a:	55                   	push   %rbp
    b01b:	48 89 e5             	mov    %rsp,%rbp
    b01e:	48 89 7d e8          	mov    %rdi,-0x18(%rbp)
    b022:	48 89 75 e0          	mov    %rsi,-0x20(%rbp)
    b026:	48 8b 45 e8          	mov    -0x18(%rbp),%rax
    b02a:	48 8b 00             	mov    (%rax),%rax
    b02d:	48 89 45 f8          	mov    %rax,-0x8(%rbp)
    b031:	48 8b 45 e0          	mov    -0x20(%rbp),%rax
    b035:	48 8b 10             	mov    (%rax),%rdx
    b038:	48 8b 45 e8          	mov    -0x18(%rbp),%rax
    b03c:	48 89 10             	mov    %rdx,(%rax)
    b03f:	48 8b 45 e0          	mov    -0x20(%rbp),%rax
    b043:	48 8b 55 f8          	mov    -0x8(%rbp),%rdx
    b047:	48 89 10             	mov    %rdx,(%rax)
    b04a:	90                   	nop
    b04b:	5d                   	pop    %rbp
    b04c:	c3                   	ret

000000000000b04d <_ZNSt11char_traitsIcE2ltERKcS2_>:
    b04d:	55                   	push   %rbp
    b04e:	48 89 e5             	mov    %rsp,%rbp
    b051:	48 89 7d f8          	mov    %rdi,-0x8(%rbp)
    b055:	48 89 75 f0          	mov    %rsi,-0x10(%rbp)
    b059:	48 8b 45 f8          	mov    -0x8(%rbp),%rax
    b05d:	0f b6 00             	movzbl (%rax),%eax
    b060:	89 c2                	mov    %eax,%edx
    b062:	48 8b 45 f0          	mov    -0x10(%rbp),%rax
    b066:	0f b6 00             	movzbl (%rax),%eax
    b069:	38 c2                	cmp    %al,%dl
    b06b:	0f 92 c0             	setb   %al
    b06e:	5d                   	pop    %rbp
    b06f:	c3                   	ret

000000000000b070 <_ZNSt11char_traitsIcE7compareEPKcS2_m>:
    b070:	55                   	push   %rbp
    b071:	48 89 e5             	mov    %rsp,%rbp
    b074:	48 83 ec 30          	sub    $0x30,%rsp
    b078:	48 89 7d e8          	mov    %rdi,-0x18(%rbp)
    b07c:	48 89 75 e0          	mov    %rsi,-0x20(%rbp)
    b080:	48 89 55 d8          	mov    %rdx,-0x28(%rbp)
    b084:	48 83 7d d8 00       	cmpq   $0x0,-0x28(%rbp)
    b089:	75 0a                	jne    b095 <_ZNSt11char_traitsIcE7compareEPKcS2_m+0x25>
    b08b:	b8 00 00 00 00       	mov    $0x0,%eax
    b090:	e9 99 00 00 00       	jmp    b12e <_ZNSt11char_traitsIcE7compareEPKcS2_m+0xbe>
    b095:	b8 00 00 00 00       	mov    $0x0,%eax
    b09a:	84 c0                	test   %al,%al
    b09c:	74 78                	je     b116 <_ZNSt11char_traitsIcE7compareEPKcS2_m+0xa6>
    b09e:	48 c7 45 f8 00 00 00 	movq   $0x0,-0x8(%rbp)
    b0a5:	00 
    b0a6:	eb 5d                	jmp    b105 <_ZNSt11char_traitsIcE7compareEPKcS2_m+0x95>
    b0a8:	48 8b 55 e0          	mov    -0x20(%rbp),%rdx
    b0ac:	48 8b 45 f8          	mov    -0x8(%rbp),%rax
    b0b0:	48 01 c2             	add    %rax,%rdx
    b0b3:	48 8b 4d e8          	mov    -0x18(%rbp),%rcx
    b0b7:	48 8b 45 f8          	mov    -0x8(%rbp),%rax
    b0bb:	48 01 c8             	add    %rcx,%rax
    b0be:	48 89 d6             	mov    %rdx,%rsi
    b0c1:	48 89 c7             	mov    %rax,%rdi
    b0c4:	e8 84 ff ff ff       	call   b04d <_ZNSt11char_traitsIcE2ltERKcS2_>
    b0c9:	84 c0                	test   %al,%al
    b0cb:	74 07                	je     b0d4 <_ZNSt11char_traitsIcE7compareEPKcS2_m+0x64>
    b0cd:	b8 ff ff ff ff       	mov    $0xffffffff,%eax
    b0d2:	eb 5a                	jmp    b12e <_ZNSt11char_traitsIcE7compareEPKcS2_m+0xbe>
    b0d4:	48 8b 55 e8          	mov    -0x18(%rbp),%rdx
    b0d8:	48 8b 45 f8          	mov    -0x8(%rbp),%rax
    b0dc:	48 01 c2             	add    %rax,%rdx
    b0df:	48 8b 4d e0          	mov    -0x20(%rbp),%rcx
    b0e3:	48 8b 45 f8          	mov    -0x8(%rbp),%rax
    b0e7:	48 01 c8             	add    %rcx,%rax
    b0ea:	48 89 d6             	mov    %rdx,%rsi
    b0ed:	48 89 c7             	mov    %rax,%rdi
    b0f0:	e8 58 ff ff ff       	call   b04d <_ZNSt11char_traitsIcE2ltERKcS2_>
    b0f5:	84 c0                	test   %al,%al
    b0f7:	74 07                	je     b100 <_ZNSt11char_traitsIcE7compareEPKcS2_m+0x90>
    b0f9:	b8 01 00 00 00       	mov    $0x1,%eax
    b0fe:	eb 2e                	jmp    b12e <_ZNSt11char_traitsIcE7compareEPKcS2_m+0xbe>
    b100:	48 83 45 f8 01       	addq   $0x1,-0x8(%rbp)
    b105:	48 8b 45 f8          	mov    -0x8(%rbp),%rax
    b109:	48 3b 45 d8          	cmp    -0x28(%rbp),%rax
    b10d:	72 99                	jb     b0a8 <_ZNSt11char_traitsIcE7compareEPKcS2_m+0x38>
    b10f:	b8 00 00 00 00       	mov    $0x0,%eax
    b114:	eb 18                	jmp    b12e <_ZNSt11char_traitsIcE7compareEPKcS2_m+0xbe>
    b116:	48 8b 55 d8          	mov    -0x28(%rbp),%rdx
    b11a:	48 8b 4d e0          	mov    -0x20(%rbp),%rcx
    b11e:	48 8b 45 e8          	mov    -0x18(%rbp),%rax
    b122:	48 89 ce             	mov    %rcx,%rsi
    b125:	48 89 c7             	mov    %rax,%rdi
    b128:	e8 e3 e2 ff ff       	call   9410 <memcmp@plt>
    b12d:	90                   	nop
    b12e:	c9                   	leave
    b12f:	c3                   	ret

000000000000b130 <_ZNSt11char_traitsIcE6lengthEPKc>:
    b130:	55                   	push   %rbp
    b131:	48 89 e5             	mov    %rsp,%rbp
    b134:	48 83 ec 10          	sub    $0x10,%rsp
    b138:	48 89 7d f8          	mov    %rdi,-0x8(%rbp)
    b13c:	b8 00 00 00 00       	mov    $0x0,%eax
    b141:	84 c0                	test   %al,%al
    b143:	74 0e                	je     b153 <_ZNSt11char_traitsIcE6lengthEPKc+0x23>
    b145:	48 8b 45 f8          	mov    -0x8(%rbp),%rax
    b149:	48 89 c7             	mov    %rax,%rdi
    b14c:	e8 0d ac 00 00       	call   15d5e <_ZN9__gnu_cxx11char_traitsIcE6lengthEPKc>
    b151:	eb 0d                	jmp    b160 <_ZNSt11char_traitsIcE6lengthEPKc+0x30>
    b153:	48 8b 45 f8          	mov    -0x8(%rbp),%rax
    b157:	48 89 c7             	mov    %rax,%rdi
    b15a:	e8 41 e0 ff ff       	call   91a0 <strlen@plt>
    b15f:	90                   	nop
    b160:	c9                   	leave
    b161:	c3                   	ret

000000000000b162 <_ZL20__gthread_mutex_lockP15pthread_mutex_t>:
    b162:	55                   	push   %rbp
    b163:	48 89 e5             	mov    %rsp,%rbp
    b166:	48 83 ec 10          	sub    $0x10,%rsp
    b16a:	48 89 7d f8          	mov    %rdi,-0x8(%rbp)
    b16e:	e8 96 e8 ff ff       	call   9a09 <_ZL18__gthread_active_pv>
    b173:	85 c0                	test   %eax,%eax
    b175:	0f 95 c0             	setne  %al
    b178:	84 c0                	test   %al,%al
    b17a:	74 0e                	je     b18a <_ZL20__gthread_mutex_lockP15pthread_mutex_t+0x28>
    b17c:	48 8b 45 f8          	mov    -0x8(%rbp),%rax
    b180:	48 89 c7             	mov    %rax,%rdi
    b183:	e8 58 e4 ff ff       	call   95e0 <pthread_mutex_lock@plt>
    b188:	eb 05                	jmp    b18f <_ZL20__gthread_mutex_lockP15pthread_mutex_t+0x2d>
    b18a:	b8 00 00 00 00       	mov    $0x0,%eax
    b18f:	c9                   	leave
    b190:	c3                   	ret

000000000000b191 <_ZL22__gthread_mutex_unlockP15pthread_mutex_t>:
    b191:	55                   	push   %rbp
    b192:	48 89 e5             	mov    %rsp,%rbp
    b195:	48 83 ec 10          	sub    $0x10,%rsp
    b199:	48 89 7d f8          	mov    %rdi,-0x8(%rbp)
    b19d:	e8 67 e8 ff ff       	call   9a09 <_ZL18__gthread_active_pv>
    b1a2:	85 c0                	test   %eax,%eax
    b1a4:	0f 95 c0             	setne  %al
    b1a7:	84 c0                	test   %al,%al
    b1a9:	74 0e                	je     b1b9 <_ZL22__gthread_mutex_unlockP15pthread_mutex_t+0x28>
    b1ab:	48 8b 45 f8          	mov    -0x8(%rbp),%rax
    b1af:	48 89 c7             	mov    %rax,%rdi
    b1b2:	e8 c9 e3 ff ff       	call   9580 <pthread_mutex_unlock@plt>
    b1b7:	eb 05                	jmp    b1be <_ZL22__gthread_mutex_unlockP15pthread_mutex_t+0x2d>
    b1b9:	b8 00 00 00 00       	mov    $0x0,%eax
    b1be:	c9                   	leave
    b1bf:	c3                   	ret

000000000000b1c0 <_ZSt4stofRKSsPm>:
    b1c0:	55                   	push   %rbp
    b1c1:	48 89 e5             	mov    %rsp,%rbp
    b1c4:	48 83 ec 10          	sub    $0x10,%rsp
    b1c8:	48 89 7d f8          	mov    %rdi,-0x8(%rbp)
    b1cc:	48 89 75 f0          	mov    %rsi,-0x10(%rbp)
    b1d0:	48 8b 45 f8          	mov    -0x8(%rbp),%rax
    b1d4:	48 89 c7             	mov    %rax,%rdi
    b1d7:	e8 e4 e6 ff ff       	call   98c0 <_ZNKSs5c_strEv@plt>
    b1dc:	48 89 c2             	mov    %rax,%rdx
    b1df:	48 8b 45 f0          	mov    -0x10(%rbp),%rax
    b1e3:	48 89 c1             	mov    %rax,%rcx
    b1e6:	48 8d 05 33 0e 03 00 	lea    0x30e33(%rip),%rax        # 3c020 <_IO_stdin_used+0x20>
    b1ed:	48 89 c6             	mov    %rax,%rsi
    b1f0:	48 8b 05 a1 8d 05 00 	mov    0x58da1(%rip),%rax        # 63f98 <strtof@GLIBC_2.2.5>
    b1f7:	48 89 c7             	mov    %rax,%rdi
    b1fa:	e8 28 ac 00 00       	call   15e27 <_ZN9__gnu_cxx6__stoaIffcJEEET0_PFT_PKT1_PPS3_DpT2_EPKcS5_PmS9_>
    b1ff:	c9                   	leave
    b200:	c3                   	ret
    b201:	90                   	nop

000000000000b202 <_ZZSt9to_stringiENKUlPcmE_clES_m>:
    b202:	55                   	push   %rbp
    b203:	48 89 e5             	mov    %rsp,%rbp
    b206:	48 83 ec 20          	sub    $0x20,%rsp
    b20a:	48 89 7d f8          	mov    %rdi,-0x8(%rbp)
    b20e:	48 89 75 f0          	mov    %rsi,-0x10(%rbp)
    b212:	48 89 55 e8          	mov    %rdx,-0x18(%rbp)
    b216:	48 8b 45 f0          	mov    -0x10(%rbp),%rax
    b21a:	c6 00 2d             	movb   $0x2d,(%rax)
    b21d:	48 8b 45 f8          	mov    -0x8(%rbp),%rax
    b221:	8b 50 08             	mov    0x8(%rax),%edx
    b224:	48 8b 45 f8          	mov    -0x8(%rbp),%rax
    b228:	8b 40 04             	mov    0x4(%rax),%eax
    b22b:	48 8b 4d f8          	mov    -0x8(%rbp),%rcx
    b22f:	0f b6 09             	movzbl (%rcx),%ecx
    b232:	0f b6 f1             	movzbl %cl,%esi
    b235:	48 8b 4d f0          	mov    -0x10(%rbp),%rcx
    b239:	48 01 f1             	add    %rsi,%rcx
    b23c:	89 c6                	mov    %eax,%esi
    b23e:	48 89 cf             	mov    %rcx,%rdi
    b241:	e8 2e ad 00 00       	call   15f74 <_ZNSt8__detail18__to_chars_10_implIjEEvPcjT_>
    b246:	48 8b 45 e8          	mov    -0x18(%rbp),%rax
    b24a:	c9                   	leave
    b24b:	c3                   	ret

000000000000b24c <_ZSt9to_stringi>:
    b24c:	55                   	push   %rbp
    b24d:	48 89 e5             	mov    %rsp,%rbp
    b250:	53                   	push   %rbx
    b251:	48 83 ec 38          	sub    $0x38,%rsp
    b255:	48 89 7d c8          	mov    %rdi,-0x38(%rbp)
    b259:	89 75 c4             	mov    %esi,-0x3c(%rbp)
    b25c:	8b 45 c4             	mov    -0x3c(%rbp),%eax
    b25f:	c1 e8 1f             	shr    $0x1f,%eax
    b262:	88 45 db             	mov    %al,-0x25(%rbp)
    b265:	80 7d db 00          	cmpb   $0x0,-0x25(%rbp)
    b269:	74 07                	je     b272 <_ZSt9to_stringi+0x26>
    b26b:	8b 45 c4             	mov    -0x3c(%rbp),%eax
    b26e:	f7 d8                	neg    %eax
    b270:	eb 03                	jmp    b275 <_ZSt9to_stringi+0x29>
    b272:	8b 45 c4             	mov    -0x3c(%rbp),%eax
    b275:	89 45 dc             	mov    %eax,-0x24(%rbp)
    b278:	8b 45 dc             	mov    -0x24(%rbp),%eax
    b27b:	be 0a 00 00 00       	mov    $0xa,%esi
    b280:	89 c7                	mov    %eax,%edi
    b282:	e8 6c 00 00 00       	call   b2f3 <_ZNSt8__detail14__to_chars_lenIjEEjT_i>
    b287:	89 45 e0             	mov    %eax,-0x20(%rbp)
    b28a:	48 8b 45 c8          	mov    -0x38(%rbp),%rax
    b28e:	48 89 c7             	mov    %rax,%rdi
    b291:	e8 8a e2 ff ff       	call   9520 <_ZNSsC1Ev@plt>
    b296:	0f b6 45 db          	movzbl -0x25(%rbp),%eax
    b29a:	88 45 e4             	mov    %al,-0x1c(%rbp)
    b29d:	8b 45 e0             	mov    -0x20(%rbp),%eax
    b2a0:	89 45 e8             	mov    %eax,-0x18(%rbp)
    b2a3:	8b 45 dc             	mov    -0x24(%rbp),%eax
    b2a6:	89 45 ec             	mov    %eax,-0x14(%rbp)
    b2a9:	0f b6 55 db          	movzbl -0x25(%rbp),%edx
    b2ad:	8b 45 e0             	mov    -0x20(%rbp),%eax
    b2b0:	01 d0                	add    %edx,%eax
    b2b2:	89 c6                	mov    %eax,%esi
    b2b4:	48 8b 45 e4          	mov    -0x1c(%rbp),%rax
    b2b8:	8b 4d ec             	mov    -0x14(%rbp),%ecx
    b2bb:	48 89 ca             	mov    %rcx,%rdx
    b2be:	48 8b 7d c8          	mov    -0x38(%rbp),%rdi
    b2c2:	48 89 d1             	mov    %rdx,%rcx
    b2c5:	48 89 c2             	mov    %rax,%rdx
    b2c8:	e8 c7 af 00 00       	call   16294 <_ZNSs22__resize_and_overwriteIZSt9to_stringiEUlPcmE_EEvmT_>
    b2cd:	eb 1a                	jmp    b2e9 <_ZSt9to_stringi+0x9d>
    b2cf:	48 89 c3             	mov    %rax,%rbx
    b2d2:	48 8b 45 c8          	mov    -0x38(%rbp),%rax
    b2d6:	48 89 c7             	mov    %rax,%rdi
    b2d9:	e8 22 e6 ff ff       	call   9900 <_ZNSsD1Ev@plt>
    b2de:	48 89 d8             	mov    %rbx,%rax
    b2e1:	48 89 c7             	mov    %rax,%rdi
    b2e4:	e8 d7 df ff ff       	call   92c0 <_Unwind_Resume@plt>
    b2e9:	48 8b 45 c8          	mov    -0x38(%rbp),%rax
    b2ed:	48 8b 5d f8          	mov    -0x8(%rbp),%rbx
    b2f1:	c9                   	leave
    b2f2:	c3                   	ret

000000000000b2f3 <_ZNSt8__detail14__to_chars_lenIjEEjT_i>:
    b2f3:	55                   	push   %rbp
    b2f4:	48 89 e5             	mov    %rsp,%rbp
    b2f7:	89 7d dc             	mov    %edi,-0x24(%rbp)
    b2fa:	89 75 d8             	mov    %esi,-0x28(%rbp)
    b2fd:	c7 45 ec 01 00 00 00 	movl   $0x1,-0x14(%rbp)
    b304:	8b 45 d8             	mov    -0x28(%rbp),%eax
    b307:	0f af c0             	imul   %eax,%eax
    b30a:	89 45 f0             	mov    %eax,-0x10(%rbp)
    b30d:	8b 45 d8             	mov    -0x28(%rbp),%eax
    b310:	8b 55 f0             	mov    -0x10(%rbp),%edx
    b313:	0f af c2             	imul   %edx,%eax
    b316:	89 45 f4             	mov    %eax,-0xc(%rbp)
    b319:	8b 45 d8             	mov    -0x28(%rbp),%eax
    b31c:	0f af 45 f4          	imul   -0xc(%rbp),%eax
    b320:	89 c0                	mov    %eax,%eax
    b322:	48 89 45 f8          	mov    %rax,-0x8(%rbp)
    b326:	8b 45 d8             	mov    -0x28(%rbp),%eax
    b329:	39 45 dc             	cmp    %eax,-0x24(%rbp)
    b32c:	73 05                	jae    b333 <_ZNSt8__detail14__to_chars_lenIjEEjT_i+0x40>
    b32e:	8b 45 ec             	mov    -0x14(%rbp),%eax
    b331:	eb 46                	jmp    b379 <_ZNSt8__detail14__to_chars_lenIjEEjT_i+0x86>
    b333:	8b 45 dc             	mov    -0x24(%rbp),%eax
    b336:	3b 45 f0             	cmp    -0x10(%rbp),%eax
    b339:	73 08                	jae    b343 <_ZNSt8__detail14__to_chars_lenIjEEjT_i+0x50>
    b33b:	8b 45 ec             	mov    -0x14(%rbp),%eax
    b33e:	83 c0 01             	add    $0x1,%eax
    b341:	eb 36                	jmp    b379 <_ZNSt8__detail14__to_chars_lenIjEEjT_i+0x86>
    b343:	8b 45 dc             	mov    -0x24(%rbp),%eax
    b346:	3b 45 f4             	cmp    -0xc(%rbp),%eax
    b349:	73 08                	jae    b353 <_ZNSt8__detail14__to_chars_lenIjEEjT_i+0x60>
    b34b:	8b 45 ec             	mov    -0x14(%rbp),%eax
    b34e:	83 c0 02             	add    $0x2,%eax
    b351:	eb 26                	jmp    b379 <_ZNSt8__detail14__to_chars_lenIjEEjT_i+0x86>
    b353:	8b 45 dc             	mov    -0x24(%rbp),%eax
    b356:	48 3b 45 f8          	cmp    -0x8(%rbp),%rax
    b35a:	73 08                	jae    b364 <_ZNSt8__detail14__to_chars_lenIjEEjT_i+0x71>
    b35c:	8b 45 ec             	mov    -0x14(%rbp),%eax
    b35f:	83 c0 03             	add    $0x3,%eax
    b362:	eb 15                	jmp    b379 <_ZNSt8__detail14__to_chars_lenIjEEjT_i+0x86>
    b364:	8b 45 dc             	mov    -0x24(%rbp),%eax
    b367:	ba 00 00 00 00       	mov    $0x0,%edx
    b36c:	48 f7 75 f8          	divq   -0x8(%rbp)
    b370:	89 45 dc             	mov    %eax,-0x24(%rbp)
    b373:	83 45 ec 04          	addl   $0x4,-0x14(%rbp)
    b377:	eb ad                	jmp    b326 <_ZNSt8__detail14__to_chars_lenIjEEjT_i+0x33>
    b379:	5d                   	pop    %rbp
    b37a:	c3                   	ret

000000000000b37b <_ZStorSt13_Ios_OpenmodeS_>:
    b37b:	55                   	push   %rbp
    b37c:	48 89 e5             	mov    %rsp,%rbp
    b37f:	89 7d fc             	mov    %edi,-0x4(%rbp)
    b382:	89 75 f8             	mov    %esi,-0x8(%rbp)
    b385:	8b 45 fc             	mov    -0x4(%rbp),%eax
    b388:	0b 45 f8             	or     -0x8(%rbp),%eax
    b38b:	5d                   	pop    %rbp
    b38c:	c3                   	ret

000000000000b38d <_ZN3c106detail12_str_wrapperIJPKcEE4callES3_>:
    b38d:	55                   	push   %rbp
    b38e:	48 89 e5             	mov    %rsp,%rbp
    b391:	48 89 7d f8          	mov    %rdi,-0x8(%rbp)
    b395:	48 8b 45 f8          	mov    -0x8(%rbp),%rax
    b399:	5d                   	pop    %rbp
    b39a:	c3                   	ret

000000000000b39b <_ZN3c106detail12_str_wrapperIJEE4callEv>:
    b39b:	55                   	push   %rbp
    b39c:	48 89 e5             	mov    %rsp,%rbp
    b39f:	90                   	nop
    b3a0:	5d                   	pop    %rbp
    b3a1:	c3                   	ret

000000000000b3a2 <_ZNKSt18bad_variant_access4whatEv>:
    b3a2:	55                   	push   %rbp
    b3a3:	48 89 e5             	mov    %rsp,%rbp
    b3a6:	48 89 7d f8          	mov    %rdi,-0x8(%rbp)
    b3aa:	48 8b 45 f8          	mov    -0x8(%rbp),%rax
    b3ae:	48 8b 40 08          	mov    0x8(%rax),%rax
    b3b2:	5d                   	pop    %rbp
    b3b3:	c3                   	ret

000000000000b3b4 <_ZNSt18bad_variant_accessC1EPKc>:
    b3b4:	55                   	push   %rbp
    b3b5:	48 89 e5             	mov    %rsp,%rbp
    b3b8:	48 83 ec 10          	sub    $0x10,%rsp
    b3bc:	48 89 7d f8          	mov    %rdi,-0x8(%rbp)
    b3c0:	48 89 75 f0          	mov    %rsi,-0x10(%rbp)
    b3c4:	48 8b 45 f8          	mov    -0x8(%rbp),%rax
    b3c8:	48 89 c7             	mov    %rax,%rdi
    b3cb:	e8 38 f9 ff ff       	call   ad08 <_ZNSt9exceptionC1Ev>
    b3d0:	48 8d 15 f9 7f 05 00 	lea    0x57ff9(%rip),%rdx        # 633d0 <_ZTVSt18bad_variant_access+0x10>
    b3d7:	48 8b 45 f8          	mov    -0x8(%rbp),%rax
    b3db:	48 89 10             	mov    %rdx,(%rax)
    b3de:	48 8b 45 f8          	mov    -0x8(%rbp),%rax
    b3e2:	48 8b 55 f0          	mov    -0x10(%rbp),%rdx
    b3e6:	48 89 50 08          	mov    %rdx,0x8(%rax)
    b3ea:	90                   	nop
    b3eb:	c9                   	leave
    b3ec:	c3                   	ret
    b3ed:	90                   	nop

000000000000b3ee <_ZNSt18bad_variant_accessD1Ev>:
    b3ee:	55                   	push   %rbp
    b3ef:	48 89 e5             	mov    %rsp,%rbp
    b3f2:	48 83 ec 10          	sub    $0x10,%rsp
    b3f6:	48 89 7d f8          	mov    %rdi,-0x8(%rbp)
    b3fa:	48 8d 15 cf 7f 05 00 	lea    0x57fcf(%rip),%rdx        # 633d0 <_ZTVSt18bad_variant_access+0x10>
    b401:	48 8b 45 f8          	mov    -0x8(%rbp),%rax
    b405:	48 89 10             	mov    %rdx,(%rax)
    b408:	48 8b 45 f8          	mov    -0x8(%rbp),%rax
    b40c:	48 89 c7             	mov    %rax,%rdi
    b40f:	e8 7c dc ff ff       	call   9090 <_ZNSt9exceptionD2Ev@plt>
    b414:	90                   	nop
    b415:	c9                   	leave
    b416:	c3                   	ret
    b417:	90                   	nop

000000000000b418 <_ZNSt18bad_variant_accessD0Ev>:
    b418:	55                   	push   %rbp
    b419:	48 89 e5             	mov    %rsp,%rbp
    b41c:	48 83 ec 10          	sub    $0x10,%rsp
    b420:	48 89 7d f8          	mov    %rdi,-0x8(%rbp)
    b424:	48 8b 45 f8          	mov    -0x8(%rbp),%rax
    b428:	48 89 c7             	mov    %rax,%rdi
    b42b:	e8 be ff ff ff       	call   b3ee <_ZNSt18bad_variant_accessD1Ev>
    b430:	48 8b 45 f8          	mov    -0x8(%rbp),%rax
    b434:	be 10 00 00 00       	mov    $0x10,%esi
    b439:	48 89 c7             	mov    %rax,%rdi
    b43c:	e8 6f e2 ff ff       	call   96b0 <_ZdlPvm@plt>
    b441:	c9                   	leave
    b442:	c3                   	ret

000000000000b443 <_ZSt26__throw_bad_variant_accessPKc>:
    b443:	55                   	push   %rbp
    b444:	48 89 e5             	mov    %rsp,%rbp
    b447:	53                   	push   %rbx
    b448:	48 83 ec 18          	sub    $0x18,%rsp
    b44c:	48 89 7d e8          	mov    %rdi,-0x18(%rbp)
    b450:	bf 10 00 00 00       	mov    $0x10,%edi
    b455:	e8 16 e2 ff ff       	call   9670 <__cxa_allocate_exception@plt>
    b45a:	48 89 c3             	mov    %rax,%rbx
    b45d:	48 8b 45 e8          	mov    -0x18(%rbp),%rax
    b461:	48 89 c6             	mov    %rax,%rsi
    b464:	48 89 df             	mov    %rbx,%rdi
    b467:	e8 48 ff ff ff       	call   b3b4 <_ZNSt18bad_variant_accessC1EPKc>
    b46c:	48 8d 05 7b ff ff ff 	lea    -0x85(%rip),%rax        # b3ee <_ZNSt18bad_variant_accessD1Ev>
    b473:	48 89 c2             	mov    %rax,%rdx
    b476:	48 8d 05 0b 88 05 00 	lea    0x5880b(%rip),%rax        # 63c88 <_ZTVN10__cxxabiv120__si_class_type_infoE@CXXABI_1.3>
    b47d:	48 89 c6             	mov    %rax,%rsi
    b480:	48 89 df             	mov    %rbx,%rdi
    b483:	e8 c8 dd ff ff       	call   9250 <__cxa_throw@plt>

000000000000b488 <_ZN3c106detail17torchCheckMsgImplEPKcS2_>:
    b488:	55                   	push   %rbp
    b489:	48 89 e5             	mov    %rsp,%rbp
    b48c:	48 89 7d f8          	mov    %rdi,-0x8(%rbp)
    b490:	48 89 75 f0          	mov    %rsi,-0x10(%rbp)
    b494:	48 8b 45 f0          	mov    -0x10(%rbp),%rax
    b498:	5d                   	pop    %rbp
    b499:	c3                   	ret

000000000000b49a <_ZN3c106detail23torchInternalAssertFailEPKcS2_jS2_NS0_22CompileTimeEmptyStringE>:
    b49a:	55                   	push   %rbp
    b49b:	48 89 e5             	mov    %rsp,%rbp
    b49e:	48 83 ec 20          	sub    $0x20,%rsp
    b4a2:	48 89 7d f8          	mov    %rdi,-0x8(%rbp)
    b4a6:	48 89 75 f0          	mov    %rsi,-0x10(%rbp)
    b4aa:	89 55 ec             	mov    %edx,-0x14(%rbp)
    b4ad:	48 89 4d e0          	mov    %rcx,-0x20(%rbp)
    b4b1:	48 8b 4d e0          	mov    -0x20(%rbp),%rcx
    b4b5:	8b 55 ec             	mov    -0x14(%rbp),%edx
    b4b8:	48 8b 75 f0          	mov    -0x10(%rbp),%rsi
    b4bc:	48 8b 45 f8          	mov    -0x8(%rbp),%rax
    b4c0:	48 89 c7             	mov    %rax,%rdi
    b4c3:	e8 58 dc ff ff       	call   9120 <_ZN3c106detail14torchCheckFailEPKcS2_jS2_@plt>

000000000000b4c8 <_ZN3c106detail19deprecated_AT_ERROREv>:
    b4c8:	55                   	push   %rbp
    b4c9:	48 89 e5             	mov    %rsp,%rbp
    b4cc:	90                   	nop
    b4cd:	5d                   	pop    %rbp
    b4ce:	c3                   	ret

000000000000b4cf <_ZN3c106detail20deprecated_AT_ASSERTEv>:
    b4cf:	55                   	push   %rbp
    b4d0:	48 89 e5             	mov    %rsp,%rbp
    b4d3:	90                   	nop
    b4d4:	5d                   	pop    %rbp
    b4d5:	c3                   	ret

000000000000b4d6 <_ZN3c106DeviceC1ENS_10DeviceTypeEa>:
    b4d6:	55                   	push   %rbp
    b4d7:	48 89 e5             	mov    %rsp,%rbp
    b4da:	48 83 ec 10          	sub    $0x10,%rsp
    b4de:	48 89 7d f8          	mov    %rdi,-0x8(%rbp)
    b4e2:	89 f1                	mov    %esi,%ecx
    b4e4:	89 d0                	mov    %edx,%eax
    b4e6:	89 ca                	mov    %ecx,%edx
    b4e8:	88 55 f4             	mov    %dl,-0xc(%rbp)
    b4eb:	88 45 f0             	mov    %al,-0x10(%rbp)
    b4ee:	48 8b 45 f8          	mov    -0x8(%rbp),%rax
    b4f2:	0f b6 55 f4          	movzbl -0xc(%rbp),%edx
    b4f6:	88 10                	mov    %dl,(%rax)
    b4f8:	48 8b 45 f8          	mov    -0x8(%rbp),%rax
    b4fc:	0f b6 55 f0          	movzbl -0x10(%rbp),%edx
    b500:	88 50 01             	mov    %dl,0x1(%rax)
    b503:	48 8b 45 f8          	mov    -0x8(%rbp),%rax
    b507:	48 89 c7             	mov    %rax,%rdi
    b50a:	e8 d1 00 00 00       	call   b5e0 <_ZN3c106Device8validateEv>
    b50f:	90                   	nop
    b510:	c9                   	leave
    b511:	c3                   	ret

000000000000b512 <_ZNK3c106Device6is_cpuEv>:
    b512:	55                   	push   %rbp
    b513:	48 89 e5             	mov    %rsp,%rbp
    b516:	48 89 7d f8          	mov    %rdi,-0x8(%rbp)
    b51a:	48 8b 45 f8          	mov    -0x8(%rbp),%rax
    b51e:	0f b6 00             	movzbl (%rax),%eax
    b521:	84 c0                	test   %al,%al
    b523:	0f 94 c0             	sete   %al
    b526:	5d                   	pop    %rbp
    b527:	c3                   	ret

000000000000b528 <_ZN3c103strIJA46_ciEEEDcDpRKT_>:
    b528:	55                   	push   %rbp
    b529:	48 89 e5             	mov    %rsp,%rbp
    b52c:	48 83 ec 30          	sub    $0x30,%rsp
    b530:	48 89 7d e8          	mov    %rdi,-0x18(%rbp)
    b534:	48 89 75 e0          	mov    %rsi,-0x20(%rbp)
    b538:	48 89 55 d8          	mov    %rdx,-0x28(%rbp)
    b53c:	64 48 8b 04 25 28 00 	mov    %fs:0x28,%rax
    b543:	00 00 
    b545:	48 89 45 f8          	mov    %rax,-0x8(%rbp)
    b549:	31 c0                	xor    %eax,%eax
    b54b:	48 8b 45 e0          	mov    -0x20(%rbp),%rax
    b54f:	48 89 45 f0          	mov    %rax,-0x10(%rbp)
    b553:	48 8b 45 e8          	mov    -0x18(%rbp),%rax
    b557:	48 8b 55 d8          	mov    -0x28(%rbp),%rdx
    b55b:	48 8d 4d f0          	lea    -0x10(%rbp),%rcx
    b55f:	48 89 ce             	mov    %rcx,%rsi
    b562:	48 89 c7             	mov    %rax,%rdi
    b565:	e8 e0 ae 00 00       	call   1644a <_ZN3c106detail12_str_wrapperIJPKcRKiEE4callERKS3_S5_>
    b56a:	48 8b 45 f8          	mov    -0x8(%rbp),%rax
    b56e:	64 48 2b 04 25 28 00 	sub    %fs:0x28,%rax
    b575:	00 00 
    b577:	74 05                	je     b57e <_ZN3c103strIJA46_ciEEEDcDpRKT_+0x56>
    b579:	e8 82 db ff ff       	call   9100 <__stack_chk_fail@plt>
    b57e:	48 8b 45 e8          	mov    -0x18(%rbp),%rax
    b582:	c9                   	leave
    b583:	c3                   	ret

000000000000b584 <_ZN3c103strIJA42_ciEEEDcDpRKT_>:
    b584:	55                   	push   %rbp
    b585:	48 89 e5             	mov    %rsp,%rbp
    b588:	48 83 ec 30          	sub    $0x30,%rsp
    b58c:	48 89 7d e8          	mov    %rdi,-0x18(%rbp)
    b590:	48 89 75 e0          	mov    %rsi,-0x20(%rbp)
    b594:	48 89 55 d8          	mov    %rdx,-0x28(%rbp)
    b598:	64 48 8b 04 25 28 00 	mov    %fs:0x28,%rax
    b59f:	00 00 
    b5a1:	48 89 45 f8          	mov    %rax,-0x8(%rbp)
    b5a5:	31 c0                	xor    %eax,%eax
    b5a7:	48 8b 45 e0          	mov    -0x20(%rbp),%rax
    b5ab:	48 89 45 f0          	mov    %rax,-0x10(%rbp)
    b5af:	48 8b 45 e8          	mov    -0x18(%rbp),%rax
    b5b3:	48 8b 55 d8          	mov    -0x28(%rbp),%rdx
    b5b7:	48 8d 4d f0          	lea    -0x10(%rbp),%rcx
    b5bb:	48 89 ce             	mov    %rcx,%rsi
    b5be:	48 89 c7             	mov    %rax,%rdi
    b5c1:	e8 84 ae 00 00       	call   1644a <_ZN3c106detail12_str_wrapperIJPKcRKiEE4callERKS3_S5_>
    b5c6:	48 8b 45 f8          	mov    -0x8(%rbp),%rax
    b5ca:	64 48 2b 04 25 28 00 	sub    %fs:0x28,%rax
    b5d1:	00 00 
    b5d3:	74 05                	je     b5da <_ZN3c103strIJA42_ciEEEDcDpRKT_+0x56>
    b5d5:	e8 26 db ff ff       	call   9100 <__stack_chk_fail@plt>
    b5da:	48 8b 45 e8          	mov    -0x18(%rbp),%rax
    b5de:	c9                   	leave
    b5df:	c3                   	ret

000000000000b5e0 <_ZN3c106Device8validateEv>:
    b5e0:	55                   	push   %rbp
    b5e1:	48 89 e5             	mov    %rsp,%rbp
    b5e4:	53                   	push   %rbx
    b5e5:	48 83 ec 38          	sub    $0x38,%rsp
    b5e9:	48 89 7d c8          	mov    %rdi,-0x38(%rbp)
    b5ed:	64 48 8b 04 25 28 00 	mov    %fs:0x28,%rax
    b5f4:	00 00 
    b5f6:	48 89 45 e8          	mov    %rax,-0x18(%rbp)
    b5fa:	31 c0                	xor    %eax,%eax
    b5fc:	48 8b 45 c8          	mov    -0x38(%rbp),%rax
    b600:	0f b6 40 01          	movzbl 0x1(%rax),%eax
    b604:	3c ff                	cmp    $0xff,%al
    b606:	0f 9c c0             	setl   %al
    b609:	0f b6 c0             	movzbl %al,%eax
    b60c:	48 85 c0             	test   %rax,%rax
    b60f:	74 6b                	je     b67c <_ZN3c106Device8validateEv+0x9c>
    b611:	48 8b 45 c8          	mov    -0x38(%rbp),%rax
    b615:	0f b6 40 01          	movzbl 0x1(%rax),%eax
    b619:	0f be c0             	movsbl %al,%eax
    b61c:	89 45 dc             	mov    %eax,-0x24(%rbp)
    b61f:	48 8d 45 e0          	lea    -0x20(%rbp),%rax
    b623:	48 8d 55 dc          	lea    -0x24(%rbp),%rdx
    b627:	48 8d 0d 12 0a 03 00 	lea    0x30a12(%rip),%rcx        # 3c040 <_ZN3c10L29COMPILE_TIME_MAX_DEVICE_TYPESE+0x8>
    b62e:	48 89 ce             	mov    %rcx,%rsi
    b631:	48 89 c7             	mov    %rax,%rdi
    b634:	e8 ef fe ff ff       	call   b528 <_ZN3c103strIJA46_ciEEEDcDpRKT_>
    b639:	48 8b 45 e8          	mov    -0x18(%rbp),%rax
    b63d:	64 48 2b 04 25 28 00 	sub    %fs:0x28,%rax
    b644:	00 00 
    b646:	74 05                	je     b64d <_ZN3c106Device8validateEv+0x6d>
    b648:	e8 b3 da ff ff       	call   9100 <__stack_chk_fail@plt>
    b64d:	48 8d 45 e0          	lea    -0x20(%rbp),%rax
    b651:	49 89 c0             	mov    %rax,%r8
    b654:	48 8d 05 15 0a 03 00 	lea    0x30a15(%rip),%rax        # 3c070 <_ZN3c10L29COMPILE_TIME_MAX_DEVICE_TYPESE+0x38>
    b65b:	48 89 c1             	mov    %rax,%rcx
    b65e:	ba b1 00 00 00       	mov    $0xb1,%edx
    b663:	48 8d 05 d6 0a 03 00 	lea    0x30ad6(%rip),%rax        # 3c140 <_ZN3c10L29COMPILE_TIME_MAX_DEVICE_TYPESE+0x108>
    b66a:	48 89 c6             	mov    %rax,%rsi
    b66d:	48 8d 05 4b 0b 03 00 	lea    0x30b4b(%rip),%rax        # 3c1bf <_ZN3c10L29COMPILE_TIME_MAX_DEVICE_TYPESE+0x187>
    b674:	48 89 c7             	mov    %rax,%rdi
    b677:	e8 e4 dc ff ff       	call   9360 <_ZN3c106detail23torchInternalAssertFailEPKcS2_jS2_RKSs@plt>
    b67c:	48 8b 45 c8          	mov    -0x38(%rbp),%rax
    b680:	48 89 c7             	mov    %rax,%rdi
    b683:	e8 8a fe ff ff       	call   b512 <_ZNK3c106Device6is_cpuEv>
    b688:	0f b6 c0             	movzbl %al,%eax
    b68b:	48 85 c0             	test   %rax,%rax
    b68e:	74 1c                	je     b6ac <_ZN3c106Device8validateEv+0xcc>
    b690:	48 8b 45 c8          	mov    -0x38(%rbp),%rax
    b694:	0f b6 40 01          	movzbl 0x1(%rax),%eax
    b698:	84 c0                	test   %al,%al
    b69a:	0f 9f c0             	setg   %al
    b69d:	0f b6 c0             	movzbl %al,%eax
    b6a0:	48 85 c0             	test   %rax,%rax
    b6a3:	74 07                	je     b6ac <_ZN3c106Device8validateEv+0xcc>
    b6a5:	b8 01 00 00 00       	mov    $0x1,%eax
    b6aa:	eb 05                	jmp    b6b1 <_ZN3c106Device8validateEv+0xd1>
    b6ac:	b8 00 00 00 00       	mov    $0x0,%eax
    b6b1:	0f b6 c0             	movzbl %al,%eax
    b6b4:	48 85 c0             	test   %rax,%rax
    b6b7:	0f 95 c0             	setne  %al
    b6ba:	84 c0                	test   %al,%al
    b6bc:	0f 84 c7 00 00 00    	je     b789 <_ZN3c106Device8validateEv+0x1a9>
    b6c2:	48 8b 45 c8          	mov    -0x38(%rbp),%rax
    b6c6:	0f b6 40 01          	movzbl 0x1(%rax),%eax
    b6ca:	0f be c0             	movsbl %al,%eax
    b6cd:	89 45 dc             	mov    %eax,-0x24(%rbp)
    b6d0:	48 8d 45 e0          	lea    -0x20(%rbp),%rax
    b6d4:	48 8d 55 dc          	lea    -0x24(%rbp),%rdx
    b6d8:	48 8d 0d e9 0a 03 00 	lea    0x30ae9(%rip),%rcx        # 3c1c8 <_ZN3c10L29COMPILE_TIME_MAX_DEVICE_TYPESE+0x190>
    b6df:	48 89 ce             	mov    %rcx,%rsi
    b6e2:	48 89 c7             	mov    %rax,%rdi
    b6e5:	e8 9a fe ff ff       	call   b584 <_ZN3c103strIJA42_ciEEEDcDpRKT_>
    b6ea:	48 8b 45 e8          	mov    -0x18(%rbp),%rax
    b6ee:	64 48 2b 04 25 28 00 	sub    %fs:0x28,%rax
    b6f5:	00 00 
    b6f7:	74 05                	je     b6fe <_ZN3c106Device8validateEv+0x11e>
    b6f9:	e8 02 da ff ff       	call   9100 <__stack_chk_fail@plt>
    b6fe:	48 8d 45 e0          	lea    -0x20(%rbp),%rax
    b702:	49 89 c0             	mov    %rax,%r8
    b705:	48 8d 05 ec 0a 03 00 	lea    0x30aec(%rip),%rax        # 3c1f8 <_ZN3c10L29COMPILE_TIME_MAX_DEVICE_TYPESE+0x1c0>
    b70c:	48 89 c1             	mov    %rax,%rcx
    b70f:	ba b5 00 00 00       	mov    $0xb5,%edx
    b714:	48 8d 05 25 0a 03 00 	lea    0x30a25(%rip),%rax        # 3c140 <_ZN3c10L29COMPILE_TIME_MAX_DEVICE_TYPESE+0x108>
    b71b:	48 89 c6             	mov    %rax,%rsi
    b71e:	48 8d 05 9a 0a 03 00 	lea    0x30a9a(%rip),%rax        # 3c1bf <_ZN3c10L29COMPILE_TIME_MAX_DEVICE_TYPESE+0x187>
    b725:	48 89 c7             	mov    %rax,%rdi
    b728:	e8 33 dc ff ff       	call   9360 <_ZN3c106detail23torchInternalAssertFailEPKcS2_jS2_RKSs@plt>
    b72d:	48 89 c3             	mov    %rax,%rbx
    b730:	48 8d 45 e0          	lea    -0x20(%rbp),%rax
    b734:	48 89 c7             	mov    %rax,%rdi
    b737:	e8 c4 e1 ff ff       	call   9900 <_ZNSsD1Ev@plt>
    b73c:	48 89 d8             	mov    %rbx,%rax
    b73f:	48 8b 55 e8          	mov    -0x18(%rbp),%rdx
    b743:	64 48 2b 14 25 28 00 	sub    %fs:0x28,%rdx
    b74a:	00 00 
    b74c:	74 05                	je     b753 <_ZN3c106Device8validateEv+0x173>
    b74e:	e8 ad d9 ff ff       	call   9100 <__stack_chk_fail@plt>
    b753:	48 89 c7             	mov    %rax,%rdi
    b756:	e8 65 db ff ff       	call   92c0 <_Unwind_Resume@plt>
    b75b:	48 89 c3             	mov    %rax,%rbx
    b75e:	48 8d 45 e0          	lea    -0x20(%rbp),%rax
    b762:	48 89 c7             	mov    %rax,%rdi
    b765:	e8 96 e1 ff ff       	call   9900 <_ZNSsD1Ev@plt>
    b76a:	48 89 d8             	mov    %rbx,%rax
    b76d:	48 8b 55 e8          	mov    -0x18(%rbp),%rdx
    b771:	64 48 2b 14 25 28 00 	sub    %fs:0x28,%rdx
    b778:	00 00 
    b77a:	74 05                	je     b781 <_ZN3c106Device8validateEv+0x1a1>
    b77c:	e8 7f d9 ff ff       	call   9100 <__stack_chk_fail@plt>
    b781:	48 89 c7             	mov    %rax,%rdi
    b784:	e8 37 db ff ff       	call   92c0 <_Unwind_Resume@plt>
    b789:	90                   	nop
    b78a:	48 8b 45 e8          	mov    -0x18(%rbp),%rax
    b78e:	64 48 2b 04 25 28 00 	sub    %fs:0x28,%rax
    b795:	00 00 
    b797:	74 05                	je     b79e <_ZN3c106Device8validateEv+0x1be>
    b799:	e8 62 d9 ff ff       	call   9100 <__stack_chk_fail@plt>
    b79e:	48 8b 5d f8          	mov    -0x8(%rbp),%rbx
    b7a2:	c9                   	leave
    b7a3:	c3                   	ret

000000000000b7a4 <_ZN3c103strIJEEEDcDpRKT_>:
    b7a4:	55                   	push   %rbp
    b7a5:	48 89 e5             	mov    %rsp,%rbp
    b7a8:	e8 ee fb ff ff       	call   b39b <_ZN3c106detail12_str_wrapperIJEE4callEv>
    b7ad:	90                   	nop
    b7ae:	5d                   	pop    %rbp
    b7af:	c3                   	ret

000000000000b7b0 <_ZNSt16_Sp_counted_baseILN9__gnu_cxx12_Lock_policyE2EE10_M_releaseEv>:
    b7b0:	55                   	push   %rbp
    b7b1:	48 89 e5             	mov    %rsp,%rbp
    b7b4:	48 83 ec 60          	sub    $0x60,%rsp
    b7b8:	48 89 7d a8          	mov    %rdi,-0x58(%rbp)
    b7bc:	c6 45 bd 01          	movb   $0x1,-0x43(%rbp)
    b7c0:	c6 45 be 01          	movb   $0x1,-0x42(%rbp)
    b7c4:	c6 45 bf 01          	movb   $0x1,-0x41(%rbp)
    b7c8:	c7 45 c0 20 00 00 00 	movl   $0x20,-0x40(%rbp)
    b7cf:	c7 45 c4 20 00 00 00 	movl   $0x20,-0x3c(%rbp)
    b7d6:	48 b8 01 00 00 00 01 	movabs $0x100000001,%rax
    b7dd:	00 00 00 
    b7e0:	48 89 45 d8          	mov    %rax,-0x28(%rbp)
    b7e4:	48 8b 45 a8          	mov    -0x58(%rbp),%rax
    b7e8:	48 83 c0 08          	add    $0x8,%rax
    b7ec:	48 89 45 e0          	mov    %rax,-0x20(%rbp)
    b7f0:	48 8b 45 e0          	mov    -0x20(%rbp),%rax
    b7f4:	48 8b 10             	mov    (%rax),%rdx
    b7f7:	48 b8 01 00 00 00 01 	movabs $0x100000001,%rax
    b7fe:	00 00 00 
    b801:	48 39 c2             	cmp    %rax,%rdx
    b804:	0f 94 c0             	sete   %al
    b807:	84 c0                	test   %al,%al
    b809:	74 4c                	je     b857 <_ZNSt16_Sp_counted_baseILN9__gnu_cxx12_Lock_policyE2EE10_M_releaseEv+0xa7>
    b80b:	48 8b 45 a8          	mov    -0x58(%rbp),%rax
    b80f:	c7 40 08 00 00 00 00 	movl   $0x0,0x8(%rax)
    b816:	48 8b 45 a8          	mov    -0x58(%rbp),%rax
    b81a:	8b 50 08             	mov    0x8(%rax),%edx
    b81d:	48 8b 45 a8          	mov    -0x58(%rbp),%rax
    b821:	89 50 0c             	mov    %edx,0xc(%rax)
    b824:	48 8b 45 a8          	mov    -0x58(%rbp),%rax
    b828:	48 8b 00             	mov    (%rax),%rax
    b82b:	48 83 c0 10          	add    $0x10,%rax
    b82f:	48 8b 10             	mov    (%rax),%rdx
    b832:	48 8b 45 a8          	mov    -0x58(%rbp),%rax
    b836:	48 89 c7             	mov    %rax,%rdi
    b839:	ff d2                	call   *%rdx
    b83b:	48 8b 45 a8          	mov    -0x58(%rbp),%rax
    b83f:	48 8b 00             	mov    (%rax),%rax
    b842:	48 83 c0 18          	add    $0x18,%rax
    b846:	48 8b 10             	mov    (%rax),%rdx
    b849:	48 8b 45 a8          	mov    -0x58(%rbp),%rax
    b84d:	48 89 c7             	mov    %rax,%rdi
    b850:	ff d2                	call   *%rdx
    b852:	e9 83 00 00 00       	jmp    b8da <_ZNSt16_Sp_counted_baseILN9__gnu_cxx12_Lock_policyE2EE10_M_releaseEv+0x12a>
    b857:	48 8b 45 a8          	mov    -0x58(%rbp),%rax
    b85b:	48 83 c0 08          	add    $0x8,%rax
    b85f:	48 89 45 e8          	mov    %rax,-0x18(%rbp)
    b863:	c7 45 c8 ff ff ff ff 	movl   $0xffffffff,-0x38(%rbp)
    b86a:	0f b6 05 2f 8e 05 00 	movzbl 0x58e2f(%rip),%eax        # 646a0 <__libc_single_threaded@GLIBC_2.32>
    b871:	84 c0                	test   %al,%al
    b873:	0f 95 c0             	setne  %al
    b876:	84 c0                	test   %al,%al
    b878:	74 2d                	je     b8a7 <_ZNSt16_Sp_counted_baseILN9__gnu_cxx12_Lock_policyE2EE10_M_releaseEv+0xf7>
    b87a:	48 8b 45 e8          	mov    -0x18(%rbp),%rax
    b87e:	48 89 45 f0          	mov    %rax,-0x10(%rbp)
    b882:	8b 45 c8             	mov    -0x38(%rbp),%eax
    b885:	89 45 cc             	mov    %eax,-0x34(%rbp)
    b888:	48 8b 45 f0          	mov    -0x10(%rbp),%rax
    b88c:	8b 00                	mov    (%rax),%eax
    b88e:	89 45 d0             	mov    %eax,-0x30(%rbp)
    b891:	48 8b 45 f0          	mov    -0x10(%rbp),%rax
    b895:	8b 10                	mov    (%rax),%edx
    b897:	8b 45 cc             	mov    -0x34(%rbp),%eax
    b89a:	01 c2                	add    %eax,%edx
    b89c:	48 8b 45 f0          	mov    -0x10(%rbp),%rax
    b8a0:	89 10                	mov    %edx,(%rax)
    b8a2:	8b 45 d0             	mov    -0x30(%rbp),%eax
    b8a5:	eb 1c                	jmp    b8c3 <_ZNSt16_Sp_counted_baseILN9__gnu_cxx12_Lock_policyE2EE10_M_releaseEv+0x113>
    b8a7:	48 8b 45 e8          	mov    -0x18(%rbp),%rax
    b8ab:	48 89 45 f8          	mov    %rax,-0x8(%rbp)
    b8af:	8b 45 c8             	mov    -0x38(%rbp),%eax
    b8b2:	89 45 d4             	mov    %eax,-0x2c(%rbp)
    b8b5:	8b 55 d4             	mov    -0x2c(%rbp),%edx
    b8b8:	48 8b 45 f8          	mov    -0x8(%rbp),%rax
    b8bc:	f0 0f c1 10          	lock xadd %edx,(%rax)
    b8c0:	89 d0                	mov    %edx,%eax
    b8c2:	90                   	nop
    b8c3:	83 f8 01             	cmp    $0x1,%eax
    b8c6:	0f 94 c0             	sete   %al
    b8c9:	84 c0                	test   %al,%al
    b8cb:	74 0d                	je     b8da <_ZNSt16_Sp_counted_baseILN9__gnu_cxx12_Lock_policyE2EE10_M_releaseEv+0x12a>
    b8cd:	48 8b 45 a8          	mov    -0x58(%rbp),%rax
    b8d1:	48 89 c7             	mov    %rax,%rdi
    b8d4:	e8 93 ac 00 00       	call   1656c <_ZNSt16_Sp_counted_baseILN9__gnu_cxx12_Lock_policyE2EE24_M_release_last_use_coldEv>
    b8d9:	90                   	nop
    b8da:	c9                   	leave
    b8db:	c3                   	ret

000000000000b8dc <_ZNSt19_Sp_make_shared_tag5_S_tiEv>:
    b8dc:	55                   	push   %rbp
    b8dd:	48 89 e5             	mov    %rsp,%rbp
    b8e0:	48 8d 05 d9 85 03 00 	lea    0x385d9(%rip),%rax        # 43ec0 <_ZZNSt19_Sp_make_shared_tag5_S_tiEvE5__tag>
    b8e7:	5d                   	pop    %rbp
    b8e8:	c3                   	ret

000000000000b8e9 <_ZStanSt12memory_orderSt23__memory_order_modifier>:
    b8e9:	55                   	push   %rbp
    b8ea:	48 89 e5             	mov    %rsp,%rbp
    b8ed:	89 7d fc             	mov    %edi,-0x4(%rbp)
    b8f0:	89 75 f8             	mov    %esi,-0x8(%rbp)
    b8f3:	8b 55 fc             	mov    -0x4(%rbp),%edx
    b8f6:	8b 45 f8             	mov    -0x8(%rbp),%eax
    b8f9:	21 d0                	and    %edx,%eax
    b8fb:	5d                   	pop    %rbp
    b8fc:	c3                   	ret

000000000000b8fd <_ZN3c103strIJA94_cEEEDcDpRKT_>:
    b8fd:	55                   	push   %rbp
    b8fe:	48 89 e5             	mov    %rsp,%rbp
    b901:	48 83 ec 10          	sub    $0x10,%rsp
    b905:	48 89 7d f8          	mov    %rdi,-0x8(%rbp)
    b909:	48 8b 45 f8          	mov    -0x8(%rbp),%rax
    b90d:	48 89 c7             	mov    %rax,%rdi
    b910:	e8 78 fa ff ff       	call   b38d <_ZN3c106detail12_str_wrapperIJPKcEE4callES3_>
    b915:	c9                   	leave
    b916:	c3                   	ret

000000000000b917 <_ZN3c10L8toStringENS_10ScalarTypeE>:
    b917:	55                   	push   %rbp
    b918:	48 89 e5             	mov    %rsp,%rbp
    b91b:	89 f8                	mov    %edi,%eax
    b91d:	88 45 fc             	mov    %al,-0x4(%rbp)
    b920:	80 7d fc 24          	cmpb   $0x24,-0x4(%rbp)
    b924:	0f 87 b6 01 00 00    	ja     bae0 <_ZN3c10L8toStringENS_10ScalarTypeE+0x1c9>
    b92a:	0f b6 45 fc          	movzbl -0x4(%rbp),%eax
    b92e:	48 8d 14 85 00 00 00 	lea    0x0(,%rax,4),%rdx
    b935:	00 
    b936:	48 8d 05 93 85 03 00 	lea    0x38593(%rip),%rax        # 43ed0 <_ZZNSt19_Sp_make_shared_tag5_S_tiEvE5__tag+0x10>
    b93d:	8b 04 02             	mov    (%rdx,%rax,1),%eax
    b940:	48 98                	cltq
    b942:	48 8d 15 87 85 03 00 	lea    0x38587(%rip),%rdx        # 43ed0 <_ZZNSt19_Sp_make_shared_tag5_S_tiEvE5__tag+0x10>
    b949:	48 01 d0             	add    %rdx,%rax
    b94c:	ff e0                	jmp    *%rax
    b94e:	48 8d 05 c6 0b 03 00 	lea    0x30bc6(%rip),%rax        # 3c51b <_ZN3c10L6kUInt7E+0x1>
    b955:	e9 8d 01 00 00       	jmp    bae7 <_ZN3c10L8toStringENS_10ScalarTypeE+0x1d0>
    b95a:	48 8d 05 bf 0b 03 00 	lea    0x30bbf(%rip),%rax        # 3c520 <_ZN3c10L6kUInt7E+0x6>
    b961:	e9 81 01 00 00       	jmp    bae7 <_ZN3c10L8toStringENS_10ScalarTypeE+0x1d0>
    b966:	48 8d 05 b8 0b 03 00 	lea    0x30bb8(%rip),%rax        # 3c525 <_ZN3c10L6kUInt7E+0xb>
    b96d:	e9 75 01 00 00       	jmp    bae7 <_ZN3c10L8toStringENS_10ScalarTypeE+0x1d0>
    b972:	48 8d 05 b2 0b 03 00 	lea    0x30bb2(%rip),%rax        # 3c52b <_ZN3c10L6kUInt7E+0x11>
    b979:	e9 69 01 00 00       	jmp    bae7 <_ZN3c10L8toStringENS_10ScalarTypeE+0x1d0>
    b97e:	48 8d 05 aa 0b 03 00 	lea    0x30baa(%rip),%rax        # 3c52f <_ZN3c10L6kUInt7E+0x15>
    b985:	e9 5d 01 00 00       	jmp    bae7 <_ZN3c10L8toStringENS_10ScalarTypeE+0x1d0>
    b98a:	48 8d 05 a3 0b 03 00 	lea    0x30ba3(%rip),%rax        # 3c534 <_ZN3c10L6kUInt7E+0x1a>
    b991:	e9 51 01 00 00       	jmp    bae7 <_ZN3c10L8toStringENS_10ScalarTypeE+0x1d0>
    b996:	48 8d 05 9c 0b 03 00 	lea    0x30b9c(%rip),%rax        # 3c539 <_ZN3c10L6kUInt7E+0x1f>
    b99d:	e9 45 01 00 00       	jmp    bae7 <_ZN3c10L8toStringENS_10ScalarTypeE+0x1d0>
    b9a2:	48 8d 05 96 0b 03 00 	lea    0x30b96(%rip),%rax        # 3c53f <_ZN3c10L6kUInt7E+0x25>
    b9a9:	e9 39 01 00 00       	jmp    bae7 <_ZN3c10L8toStringENS_10ScalarTypeE+0x1d0>
    b9ae:	48 8d 05 91 0b 03 00 	lea    0x30b91(%rip),%rax        # 3c546 <_ZN3c10L6kUInt7E+0x2c>
    b9b5:	e9 2d 01 00 00       	jmp    bae7 <_ZN3c10L8toStringENS_10ScalarTypeE+0x1d0>
    b9ba:	48 8d 05 91 0b 03 00 	lea    0x30b91(%rip),%rax        # 3c552 <_ZN3c10L6kUInt7E+0x38>
    b9c1:	e9 21 01 00 00       	jmp    bae7 <_ZN3c10L8toStringENS_10ScalarTypeE+0x1d0>
    b9c6:	48 8d 05 92 0b 03 00 	lea    0x30b92(%rip),%rax        # 3c55f <_ZN3c10L6kUInt7E+0x45>
    b9cd:	e9 15 01 00 00       	jmp    bae7 <_ZN3c10L8toStringENS_10ScalarTypeE+0x1d0>
    b9d2:	48 8d 05 94 0b 03 00 	lea    0x30b94(%rip),%rax        # 3c56d <_ZN3c10L6kUInt7E+0x53>
    b9d9:	e9 09 01 00 00       	jmp    bae7 <_ZN3c10L8toStringENS_10ScalarTypeE+0x1d0>
    b9de:	48 8d 05 8d 0b 03 00 	lea    0x30b8d(%rip),%rax        # 3c572 <_ZN3c10L6kUInt7E+0x58>
    b9e5:	e9 fd 00 00 00       	jmp    bae7 <_ZN3c10L8toStringENS_10ScalarTypeE+0x1d0>
    b9ea:	48 8d 05 87 0b 03 00 	lea    0x30b87(%rip),%rax        # 3c578 <_ZN3c10L6kUInt7E+0x5e>
    b9f1:	e9 f1 00 00 00       	jmp    bae7 <_ZN3c10L8toStringENS_10ScalarTypeE+0x1d0>
    b9f6:	48 8d 05 82 0b 03 00 	lea    0x30b82(%rip),%rax        # 3c57f <_ZN3c10L6kUInt7E+0x65>
    b9fd:	e9 e5 00 00 00       	jmp    bae7 <_ZN3c10L8toStringENS_10ScalarTypeE+0x1d0>
    ba02:	48 8d 05 7d 0b 03 00 	lea    0x30b7d(%rip),%rax        # 3c586 <_ZN3c10L6kUInt7E+0x6c>
    ba09:	e9 d9 00 00 00       	jmp    bae7 <_ZN3c10L8toStringENS_10ScalarTypeE+0x1d0>
    ba0e:	48 8d 05 7a 0b 03 00 	lea    0x30b7a(%rip),%rax        # 3c58f <_ZN3c10L6kUInt7E+0x75>
    ba15:	e9 cd 00 00 00       	jmp    bae7 <_ZN3c10L8toStringENS_10ScalarTypeE+0x1d0>
    ba1a:	48 8d 05 77 0b 03 00 	lea    0x30b77(%rip),%rax        # 3c598 <_ZN3c10L6kUInt7E+0x7e>
    ba21:	e9 c1 00 00 00       	jmp    bae7 <_ZN3c10L8toStringENS_10ScalarTypeE+0x1d0>
    ba26:	48 8d 05 74 0b 03 00 	lea    0x30b74(%rip),%rax        # 3c5a1 <_ZN3c10L6kUInt7E+0x87>
    ba2d:	e9 b5 00 00 00       	jmp    bae7 <_ZN3c10L8toStringENS_10ScalarTypeE+0x1d0>
    ba32:	48 8d 05 70 0b 03 00 	lea    0x30b70(%rip),%rax        # 3c5a9 <_ZN3c10L6kUInt7E+0x8f>
    ba39:	e9 a9 00 00 00       	jmp    bae7 <_ZN3c10L8toStringENS_10ScalarTypeE+0x1d0>
    ba3e:	48 8d 05 6c 0b 03 00 	lea    0x30b6c(%rip),%rax        # 3c5b1 <_ZN3c10L6kUInt7E+0x97>
    ba45:	e9 9d 00 00 00       	jmp    bae7 <_ZN3c10L8toStringENS_10ScalarTypeE+0x1d0>
    ba4a:	48 8d 05 68 0b 03 00 	lea    0x30b68(%rip),%rax        # 3c5b9 <_ZN3c10L6kUInt7E+0x9f>
    ba51:	e9 91 00 00 00       	jmp    bae7 <_ZN3c10L8toStringENS_10ScalarTypeE+0x1d0>
    ba56:	48 8d 05 62 0b 03 00 	lea    0x30b62(%rip),%rax        # 3c5bf <_ZN3c10L6kUInt7E+0xa5>
    ba5d:	e9 85 00 00 00       	jmp    bae7 <_ZN3c10L8toStringENS_10ScalarTypeE+0x1d0>
    ba62:	48 8d 05 5d 0b 03 00 	lea    0x30b5d(%rip),%rax        # 3c5c6 <_ZN3c10L6kUInt7E+0xac>
    ba69:	eb 7c                	jmp    bae7 <_ZN3c10L8toStringENS_10ScalarTypeE+0x1d0>
    ba6b:	48 8d 05 60 0b 03 00 	lea    0x30b60(%rip),%rax        # 3c5d2 <_ZN3c10L6kUInt7E+0xb8>
    ba72:	eb 73                	jmp    bae7 <_ZN3c10L8toStringENS_10ScalarTypeE+0x1d0>
    ba74:	48 8d 05 65 0b 03 00 	lea    0x30b65(%rip),%rax        # 3c5e0 <_ZN3c10L6kUInt7E+0xc6>
    ba7b:	eb 6a                	jmp    bae7 <_ZN3c10L8toStringENS_10ScalarTypeE+0x1d0>
    ba7d:	48 8d 05 6c 0b 03 00 	lea    0x30b6c(%rip),%rax        # 3c5f0 <_ZN3c10L6kUInt7E+0xd6>
    ba84:	eb 61                	jmp    bae7 <_ZN3c10L8toStringENS_10ScalarTypeE+0x1d0>
    ba86:	48 8d 05 73 0b 03 00 	lea    0x30b73(%rip),%rax        # 3c600 <_ZN3c10L6kUInt7E+0xe6>
    ba8d:	eb 58                	jmp    bae7 <_ZN3c10L8toStringENS_10ScalarTypeE+0x1d0>
    ba8f:	48 8d 05 71 0b 03 00 	lea    0x30b71(%rip),%rax        # 3c607 <_ZN3c10L6kUInt7E+0xed>
    ba96:	eb 4f                	jmp    bae7 <_ZN3c10L8toStringENS_10ScalarTypeE+0x1d0>
    ba98:	48 8d 05 6f 0b 03 00 	lea    0x30b6f(%rip),%rax        # 3c60e <_ZN3c10L6kUInt7E+0xf4>
    ba9f:	eb 46                	jmp    bae7 <_ZN3c10L8toStringENS_10ScalarTypeE+0x1d0>
    baa1:	48 8d 05 6d 0b 03 00 	lea    0x30b6d(%rip),%rax        # 3c615 <_ZN3c10L6kUInt7E+0xfb>
    baa8:	eb 3d                	jmp    bae7 <_ZN3c10L8toStringENS_10ScalarTypeE+0x1d0>
    baaa:	48 8d 05 6a 0b 03 00 	lea    0x30b6a(%rip),%rax        # 3c61b <_ZN3c10L6kUInt7E+0x101>
    bab1:	eb 34                	jmp    bae7 <_ZN3c10L8toStringENS_10ScalarTypeE+0x1d0>
    bab3:	48 8d 05 67 0b 03 00 	lea    0x30b67(%rip),%rax        # 3c621 <_ZN3c10L6kUInt7E+0x107>
    baba:	eb 2b                	jmp    bae7 <_ZN3c10L8toStringENS_10ScalarTypeE+0x1d0>
    babc:	48 8d 05 64 0b 03 00 	lea    0x30b64(%rip),%rax        # 3c627 <_ZN3c10L6kUInt7E+0x10d>
    bac3:	eb 22                	jmp    bae7 <_ZN3c10L8toStringENS_10ScalarTypeE+0x1d0>
    bac5:	48 8d 05 61 0b 03 00 	lea    0x30b61(%rip),%rax        # 3c62d <_ZN3c10L6kUInt7E+0x113>
    bacc:	eb 19                	jmp    bae7 <_ZN3c10L8toStringENS_10ScalarTypeE+0x1d0>
    bace:	48 8d 05 5e 0b 03 00 	lea    0x30b5e(%rip),%rax        # 3c633 <_ZN3c10L6kUInt7E+0x119>
    bad5:	eb 10                	jmp    bae7 <_ZN3c10L8toStringENS_10ScalarTypeE+0x1d0>
    bad7:	48 8d 05 5b 0b 03 00 	lea    0x30b5b(%rip),%rax        # 3c639 <_ZN3c10L6kUInt7E+0x11f>
    bade:	eb 07                	jmp    bae7 <_ZN3c10L8toStringENS_10ScalarTypeE+0x1d0>
    bae0:	48 8d 05 58 0b 03 00 	lea    0x30b58(%rip),%rax        # 3c63f <_ZN3c10L6kUInt7E+0x125>
    bae7:	5d                   	pop    %rbp
    bae8:	c3                   	ret

000000000000bae9 <_ZN3c10L12isFloat8TypeENS_10ScalarTypeE>:
    bae9:	55                   	push   %rbp
    baea:	48 89 e5             	mov    %rsp,%rbp
    baed:	89 f8                	mov    %edi,%eax
    baef:	88 45 fc             	mov    %al,-0x4(%rbp)
    baf2:	80 7d fc 17          	cmpb   $0x17,-0x4(%rbp)
    baf6:	74 12                	je     bb0a <_ZN3c10L12isFloat8TypeENS_10ScalarTypeE+0x21>
    baf8:	80 7d fc 19          	cmpb   $0x19,-0x4(%rbp)
    bafc:	74 0c                	je     bb0a <_ZN3c10L12isFloat8TypeENS_10ScalarTypeE+0x21>
    bafe:	80 7d fc 18          	cmpb   $0x18,-0x4(%rbp)
    bb02:	74 06                	je     bb0a <_ZN3c10L12isFloat8TypeENS_10ScalarTypeE+0x21>
    bb04:	80 7d fc 1a          	cmpb   $0x1a,-0x4(%rbp)
    bb08:	75 07                	jne    bb11 <_ZN3c10L12isFloat8TypeENS_10ScalarTypeE+0x28>
    bb0a:	b8 01 00 00 00       	mov    $0x1,%eax
    bb0f:	eb 05                	jmp    bb16 <_ZN3c10L12isFloat8TypeENS_10ScalarTypeE+0x2d>
    bb11:	b8 00 00 00 00       	mov    $0x0,%eax
    bb16:	5d                   	pop    %rbp
    bb17:	c3                   	ret

000000000000bb18 <_ZN3c10L21isReducedFloatingTypeENS_10ScalarTypeE>:
    bb18:	55                   	push   %rbp
    bb19:	48 89 e5             	mov    %rsp,%rbp
    bb1c:	48 83 ec 08          	sub    $0x8,%rsp
    bb20:	89 f8                	mov    %edi,%eax
    bb22:	88 45 fc             	mov    %al,-0x4(%rbp)
    bb25:	80 7d fc 05          	cmpb   $0x5,-0x4(%rbp)
    bb29:	74 15                	je     bb40 <_ZN3c10L21isReducedFloatingTypeENS_10ScalarTypeE+0x28>
    bb2b:	80 7d fc 0f          	cmpb   $0xf,-0x4(%rbp)
    bb2f:	74 0f                	je     bb40 <_ZN3c10L21isReducedFloatingTypeENS_10ScalarTypeE+0x28>
    bb31:	0f b6 45 fc          	movzbl -0x4(%rbp),%eax
    bb35:	89 c7                	mov    %eax,%edi
    bb37:	e8 ad ff ff ff       	call   bae9 <_ZN3c10L12isFloat8TypeENS_10ScalarTypeE>
    bb3c:	84 c0                	test   %al,%al
    bb3e:	74 07                	je     bb47 <_ZN3c10L21isReducedFloatingTypeENS_10ScalarTypeE+0x2f>
    bb40:	b8 01 00 00 00       	mov    $0x1,%eax
    bb45:	eb 05                	jmp    bb4c <_ZN3c10L21isReducedFloatingTypeENS_10ScalarTypeE+0x34>
    bb47:	b8 00 00 00 00       	mov    $0x0,%eax
    bb4c:	c9                   	leave
    bb4d:	c3                   	ret

000000000000bb4e <_ZN3c10L14isFloatingTypeENS_10ScalarTypeE>:
    bb4e:	55                   	push   %rbp
    bb4f:	48 89 e5             	mov    %rsp,%rbp
    bb52:	48 83 ec 08          	sub    $0x8,%rsp
    bb56:	89 f8                	mov    %edi,%eax
    bb58:	88 45 fc             	mov    %al,-0x4(%rbp)
    bb5b:	80 7d fc 07          	cmpb   $0x7,-0x4(%rbp)
    bb5f:	74 15                	je     bb76 <_ZN3c10L14isFloatingTypeENS_10ScalarTypeE+0x28>
    bb61:	80 7d fc 06          	cmpb   $0x6,-0x4(%rbp)
    bb65:	74 0f                	je     bb76 <_ZN3c10L14isFloatingTypeENS_10ScalarTypeE+0x28>
    bb67:	0f b6 45 fc          	movzbl -0x4(%rbp),%eax
    bb6b:	89 c7                	mov    %eax,%edi
    bb6d:	e8 a6 ff ff ff       	call   bb18 <_ZN3c10L21isReducedFloatingTypeENS_10ScalarTypeE>
    bb72:	84 c0                	test   %al,%al
    bb74:	74 07                	je     bb7d <_ZN3c10L14isFloatingTypeENS_10ScalarTypeE+0x2f>
    bb76:	b8 01 00 00 00       	mov    $0x1,%eax
    bb7b:	eb 05                	jmp    bb82 <_ZN3c10L14isFloatingTypeENS_10ScalarTypeE+0x34>
    bb7d:	b8 00 00 00 00       	mov    $0x0,%eax
    bb82:	c9                   	leave
    bb83:	c3                   	ret

000000000000bb84 <_ZN3c10lsERSoNS_10ScalarTypeE>:
    bb84:	55                   	push   %rbp
    bb85:	48 89 e5             	mov    %rsp,%rbp
    bb88:	48 83 ec 10          	sub    $0x10,%rsp
    bb8c:	48 89 7d f8          	mov    %rdi,-0x8(%rbp)
    bb90:	89 f0                	mov    %esi,%eax
    bb92:	88 45 f4             	mov    %al,-0xc(%rbp)
    bb95:	0f b6 45 f4          	movzbl -0xc(%rbp),%eax
    bb99:	89 c7                	mov    %eax,%edi
    bb9b:	e8 77 fd ff ff       	call   b917 <_ZN3c10L8toStringENS_10ScalarTypeE>
    bba0:	48 89 c2             	mov    %rax,%rdx
    bba3:	48 8b 45 f8          	mov    -0x8(%rbp),%rax
    bba7:	48 89 d6             	mov    %rdx,%rsi
    bbaa:	48 89 c7             	mov    %rax,%rdi
    bbad:	e8 6e db ff ff       	call   9720 <_ZStlsISt11char_traitsIcEERSt13basic_ostreamIcT_ES5_PKc@plt>
    bbb2:	c9                   	leave
    bbb3:	c3                   	ret

000000000000bbb4 <_ZNKSt19bad_optional_access4whatEv>:
    bbb4:	55                   	push   %rbp
    bbb5:	48 89 e5             	mov    %rsp,%rbp
    bbb8:	48 89 7d f8          	mov    %rdi,-0x8(%rbp)
    bbbc:	48 8d 05 8b 0a 03 00 	lea    0x30a8b(%rip),%rax        # 3c64e <_ZN3c10L6kUInt7E+0x134>
    bbc3:	5d                   	pop    %rbp
    bbc4:	c3                   	ret
    bbc5:	90                   	nop

000000000000bbc6 <_ZNSt19bad_optional_accessC1Ev>:
    bbc6:	55                   	push   %rbp
    bbc7:	48 89 e5             	mov    %rsp,%rbp
    bbca:	48 83 ec 10          	sub    $0x10,%rsp
    bbce:	48 89 7d f8          	mov    %rdi,-0x8(%rbp)
    bbd2:	48 8b 45 f8          	mov    -0x8(%rbp),%rax
    bbd6:	48 89 c7             	mov    %rax,%rdi
    bbd9:	e8 2a f1 ff ff       	call   ad08 <_ZNSt9exceptionC1Ev>
    bbde:	48 8d 15 c3 77 05 00 	lea    0x577c3(%rip),%rdx        # 633a8 <_ZTVSt19bad_optional_access+0x10>
    bbe5:	48 8b 45 f8          	mov    -0x8(%rbp),%rax
    bbe9:	48 89 10             	mov    %rdx,(%rax)
    bbec:	90                   	nop
    bbed:	c9                   	leave
    bbee:	c3                   	ret
    bbef:	90                   	nop

000000000000bbf0 <_ZNSt19bad_optional_accessD1Ev>:
    bbf0:	55                   	push   %rbp
    bbf1:	48 89 e5             	mov    %rsp,%rbp
    bbf4:	48 83 ec 10          	sub    $0x10,%rsp
    bbf8:	48 89 7d f8          	mov    %rdi,-0x8(%rbp)
    bbfc:	48 8d 15 a5 77 05 00 	lea    0x577a5(%rip),%rdx        # 633a8 <_ZTVSt19bad_optional_access+0x10>
    bc03:	48 8b 45 f8          	mov    -0x8(%rbp),%rax
    bc07:	48 89 10             	mov    %rdx,(%rax)
    bc0a:	48 8b 45 f8          	mov    -0x8(%rbp),%rax
    bc0e:	48 89 c7             	mov    %rax,%rdi
    bc11:	e8 7a d4 ff ff       	call   9090 <_ZNSt9exceptionD2Ev@plt>
    bc16:	90                   	nop
    bc17:	c9                   	leave
    bc18:	c3                   	ret
    bc19:	90                   	nop

000000000000bc1a <_ZNSt19bad_optional_accessD0Ev>:
    bc1a:	55                   	push   %rbp
    bc1b:	48 89 e5             	mov    %rsp,%rbp
    bc1e:	48 83 ec 10          	sub    $0x10,%rsp
    bc22:	48 89 7d f8          	mov    %rdi,-0x8(%rbp)
    bc26:	48 8b 45 f8          	mov    -0x8(%rbp),%rax
    bc2a:	48 89 c7             	mov    %rax,%rdi
    bc2d:	e8 be ff ff ff       	call   bbf0 <_ZNSt19bad_optional_accessD1Ev>
    bc32:	48 8b 45 f8          	mov    -0x8(%rbp),%rax
    bc36:	be 08 00 00 00       	mov    $0x8,%esi
    bc3b:	48 89 c7             	mov    %rax,%rdi
    bc3e:	e8 6d da ff ff       	call   96b0 <_ZdlPvm@plt>
    bc43:	c9                   	leave
    bc44:	c3                   	ret

000000000000bc45 <_ZSt27__throw_bad_optional_accessv>:
    bc45:	55                   	push   %rbp
    bc46:	48 89 e5             	mov    %rsp,%rbp
    bc49:	53                   	push   %rbx
    bc4a:	48 83 ec 08          	sub    $0x8,%rsp
    bc4e:	bf 08 00 00 00       	mov    $0x8,%edi
    bc53:	e8 18 da ff ff       	call   9670 <__cxa_allocate_exception@plt>
    bc58:	48 89 c3             	mov    %rax,%rbx
    bc5b:	48 c7 03 00 00 00 00 	movq   $0x0,(%rbx)
    bc62:	48 89 df             	mov    %rbx,%rdi
    bc65:	e8 5c ff ff ff       	call   bbc6 <_ZNSt19bad_optional_accessC1Ev>
    bc6a:	48 8d 05 7f ff ff ff 	lea    -0x81(%rip),%rax        # bbf0 <_ZNSt19bad_optional_accessD1Ev>
    bc71:	48 89 c2             	mov    %rax,%rdx
    bc74:	48 8d 05 dd 7f 05 00 	lea    0x57fdd(%rip),%rax        # 63c58 <_ZTVN10__cxxabiv120__si_class_type_infoE@CXXABI_1.3>
    bc7b:	48 89 c6             	mov    %rax,%rsi
    bc7e:	48 89 df             	mov    %rbx,%rdi
    bc81:	e8 ca d5 ff ff       	call   9250 <__cxa_throw@plt>

000000000000bc86 <_ZNSt6atomicIjEC1Ej>:
    bc86:	55                   	push   %rbp
    bc87:	48 89 e5             	mov    %rsp,%rbp
    bc8a:	48 83 ec 10          	sub    $0x10,%rsp
    bc8e:	48 89 7d f8          	mov    %rdi,-0x8(%rbp)
    bc92:	89 75 f4             	mov    %esi,-0xc(%rbp)
    bc95:	48 8b 45 f8          	mov    -0x8(%rbp),%rax
    bc99:	8b 55 f4             	mov    -0xc(%rbp),%edx
    bc9c:	89 d6                	mov    %edx,%esi
    bc9e:	48 89 c7             	mov    %rax,%rdi
    bca1:	e8 ce 04 00 00       	call   c174 <_ZNSt13__atomic_baseIjEC1Ej>
    bca6:	90                   	nop
    bca7:	c9                   	leave
    bca8:	c3                   	ret

000000000000bca9 <_ZN3c103strIJA92_cjEEEDcDpRKT_>:
    bca9:	55                   	push   %rbp
    bcaa:	48 89 e5             	mov    %rsp,%rbp
    bcad:	48 83 ec 30          	sub    $0x30,%rsp
    bcb1:	48 89 7d e8          	mov    %rdi,-0x18(%rbp)
    bcb5:	48 89 75 e0          	mov    %rsi,-0x20(%rbp)
    bcb9:	48 89 55 d8          	mov    %rdx,-0x28(%rbp)
    bcbd:	64 48 8b 04 25 28 00 	mov    %fs:0x28,%rax
    bcc4:	00 00 
    bcc6:	48 89 45 f8          	mov    %rax,-0x8(%rbp)
    bcca:	31 c0                	xor    %eax,%eax
    bccc:	48 8b 45 e0          	mov    -0x20(%rbp),%rax
    bcd0:	48 89 45 f0          	mov    %rax,-0x10(%rbp)
    bcd4:	48 8b 45 e8          	mov    -0x18(%rbp),%rax
    bcd8:	48 8b 55 d8          	mov    -0x28(%rbp),%rdx
    bcdc:	48 8d 4d f0          	lea    -0x10(%rbp),%rcx
    bce0:	48 89 ce             	mov    %rcx,%rsi
    bce3:	48 89 c7             	mov    %rax,%rdi
    bce6:	e8 f3 a8 00 00       	call   165de <_ZN3c106detail12_str_wrapperIJPKcRKjEE4callERKS3_S5_>
    bceb:	48 8b 45 f8          	mov    -0x8(%rbp),%rax
    bcef:	64 48 2b 04 25 28 00 	sub    %fs:0x28,%rax
    bcf6:	00 00 
    bcf8:	74 05                	je     bcff <_ZN3c103strIJA92_cjEEEDcDpRKT_+0x56>
    bcfa:	e8 01 d4 ff ff       	call   9100 <__stack_chk_fail@plt>
    bcff:	48 8b 45 e8          	mov    -0x18(%rbp),%rax
    bd03:	c9                   	leave
    bd04:	c3                   	ret

000000000000bd05 <_ZN3c103strIJA82_cEEEDcDpRKT_>:
    bd05:	55                   	push   %rbp
    bd06:	48 89 e5             	mov    %rsp,%rbp
    bd09:	48 83 ec 10          	sub    $0x10,%rsp
    bd0d:	48 89 7d f8          	mov    %rdi,-0x8(%rbp)
    bd11:	48 8b 45 f8          	mov    -0x8(%rbp),%rax
    bd15:	48 89 c7             	mov    %rax,%rdi
    bd18:	e8 70 f6 ff ff       	call   b38d <_ZN3c106detail12_str_wrapperIJPKcEE4callES3_>
    bd1d:	c9                   	leave
    bd1e:	c3                   	ret
    bd1f:	90                   	nop

000000000000bd20 <_ZN3c1020intrusive_ptr_targetD1Ev>:
    bd20:	55                   	push   %rbp
    bd21:	48 89 e5             	mov    %rsp,%rbp
    bd24:	48 81 ec a0 00 00 00 	sub    $0xa0,%rsp
    bd2b:	48 89 bd 68 ff ff ff 	mov    %rdi,-0x98(%rbp)
    bd32:	64 48 8b 04 25 28 00 	mov    %fs:0x28,%rax
    bd39:	00 00 
    bd3b:	48 89 45 f8          	mov    %rax,-0x8(%rbp)
    bd3f:	31 c0                	xor    %eax,%eax
    bd41:	48 8d 15 38 76 05 00 	lea    0x57638(%rip),%rdx        # 63380 <_ZTVN3c1020intrusive_ptr_targetE+0x10>
    bd48:	48 8b 85 68 ff ff ff 	mov    -0x98(%rbp),%rax
    bd4f:	48 89 10             	mov    %rdx,(%rax)
    bd52:	48 8b 85 68 ff ff ff 	mov    -0x98(%rbp),%rax
    bd59:	48 83 c0 08          	add    $0x8,%rax
    bd5d:	48 89 45 c0          	mov    %rax,-0x40(%rbp)
    bd61:	c7 45 80 05 00 00 00 	movl   $0x5,-0x80(%rbp)
    bd68:	8b 45 80             	mov    -0x80(%rbp),%eax
    bd6b:	be ff ff 00 00       	mov    $0xffff,%esi
    bd70:	89 c7                	mov    %eax,%edi
    bd72:	e8 72 fb ff ff       	call   b8e9 <_ZStanSt12memory_orderSt23__memory_order_modifier>
    bd77:	89 45 84             	mov    %eax,-0x7c(%rbp)
    bd7a:	b8 00 00 00 00       	mov    $0x0,%eax
    bd7f:	84 c0                	test   %al,%al
    bd81:	74 0d                	je     bd90 <_ZN3c1020intrusive_ptr_targetD1Ev+0x70>
    bd83:	83 7d 84 03          	cmpl   $0x3,-0x7c(%rbp)
    bd87:	0f 94 c0             	sete   %al
    bd8a:	0f b6 c0             	movzbl %al,%eax
    bd8d:	48 85 c0             	test   %rax,%rax
    bd90:	b8 00 00 00 00       	mov    $0x0,%eax
    bd95:	84 c0                	test   %al,%al
    bd97:	74 0d                	je     bda6 <_ZN3c1020intrusive_ptr_targetD1Ev+0x86>
    bd99:	83 7d 84 04          	cmpl   $0x4,-0x7c(%rbp)
    bd9d:	0f 94 c0             	sete   %al
    bda0:	0f b6 c0             	movzbl %al,%eax
    bda3:	48 85 c0             	test   %rax,%rax
    bda6:	48 8b 45 c0          	mov    -0x40(%rbp),%rax
    bdaa:	8b 00                	mov    (%rax),%eax
    bdac:	90                   	nop
    bdad:	85 c0                	test   %eax,%eax
    bdaf:	0f 95 c0             	setne  %al
    bdb2:	0f b6 c0             	movzbl %al,%eax
    bdb5:	48 85 c0             	test   %rax,%rax
    bdb8:	74 72                	je     be2c <_ZN3c1020intrusive_ptr_targetD1Ev+0x10c>
    bdba:	48 8b 85 68 ff ff ff 	mov    -0x98(%rbp),%rax
    bdc1:	48 83 c0 08          	add    $0x8,%rax
    bdc5:	48 89 45 c8          	mov    %rax,-0x38(%rbp)
    bdc9:	c7 45 88 05 00 00 00 	movl   $0x5,-0x78(%rbp)
    bdd0:	8b 45 88             	mov    -0x78(%rbp),%eax
    bdd3:	be ff ff 00 00       	mov    $0xffff,%esi
    bdd8:	89 c7                	mov    %eax,%edi
    bdda:	e8 0a fb ff ff       	call   b8e9 <_ZStanSt12memory_orderSt23__memory_order_modifier>
    bddf:	89 45 8c             	mov    %eax,-0x74(%rbp)
    bde2:	b8 00 00 00 00       	mov    $0x0,%eax
    bde7:	84 c0                	test   %al,%al
    bde9:	74 0d                	je     bdf8 <_ZN3c1020intrusive_ptr_targetD1Ev+0xd8>
    bdeb:	83 7d 8c 03          	cmpl   $0x3,-0x74(%rbp)
    bdef:	0f 94 c0             	sete   %al
    bdf2:	0f b6 c0             	movzbl %al,%eax
    bdf5:	48 85 c0             	test   %rax,%rax
    bdf8:	b8 00 00 00 00       	mov    $0x0,%eax
    bdfd:	84 c0                	test   %al,%al
    bdff:	74 0d                	je     be0e <_ZN3c1020intrusive_ptr_targetD1Ev+0xee>
    be01:	83 7d 8c 04          	cmpl   $0x4,-0x74(%rbp)
    be05:	0f 94 c0             	sete   %al
    be08:	0f b6 c0             	movzbl %al,%eax
    be0b:	48 85 c0             	test   %rax,%rax
    be0e:	48 8b 45 c8          	mov    -0x38(%rbp),%rax
    be12:	8b 00                	mov    (%rax),%eax
    be14:	90                   	nop
    be15:	3d fe ff ff 0f       	cmp    $0xffffffe,%eax
    be1a:	0f 96 c0             	setbe  %al
    be1d:	0f b6 c0             	movzbl %al,%eax
    be20:	48 85 c0             	test   %rax,%rax
    be23:	74 07                	je     be2c <_ZN3c1020intrusive_ptr_targetD1Ev+0x10c>
    be25:	b8 01 00 00 00       	mov    $0x1,%eax
    be2a:	eb 05                	jmp    be31 <_ZN3c1020intrusive_ptr_targetD1Ev+0x111>
    be2c:	b8 00 00 00 00       	mov    $0x0,%eax
    be31:	0f b6 c0             	movzbl %al,%eax
    be34:	48 85 c0             	test   %rax,%rax
    be37:	0f 95 c0             	setne  %al
    be3a:	84 c0                	test   %al,%al
    be3c:	0f 84 c1 00 00 00    	je     bf03 <_ZN3c1020intrusive_ptr_targetD1Ev+0x1e3>
    be42:	48 8b 85 68 ff ff ff 	mov    -0x98(%rbp),%rax
    be49:	48 83 c0 08          	add    $0x8,%rax
    be4d:	48 89 45 d0          	mov    %rax,-0x30(%rbp)
    be51:	c7 45 90 05 00 00 00 	movl   $0x5,-0x70(%rbp)
    be58:	8b 45 90             	mov    -0x70(%rbp),%eax
    be5b:	be ff ff 00 00       	mov    $0xffff,%esi
    be60:	89 c7                	mov    %eax,%edi
    be62:	e8 82 fa ff ff       	call   b8e9 <_ZStanSt12memory_orderSt23__memory_order_modifier>
    be67:	89 45 94             	mov    %eax,-0x6c(%rbp)
    be6a:	b8 00 00 00 00       	mov    $0x0,%eax
    be6f:	84 c0                	test   %al,%al
    be71:	74 0d                	je     be80 <_ZN3c1020intrusive_ptr_targetD1Ev+0x160>
    be73:	83 7d 94 03          	cmpl   $0x3,-0x6c(%rbp)
    be77:	0f 94 c0             	sete   %al
    be7a:	0f b6 c0             	movzbl %al,%eax
    be7d:	48 85 c0             	test   %rax,%rax
    be80:	b8 00 00 00 00       	mov    $0x0,%eax
    be85:	84 c0                	test   %al,%al
    be87:	74 0d                	je     be96 <_ZN3c1020intrusive_ptr_targetD1Ev+0x176>
    be89:	83 7d 94 04          	cmpl   $0x4,-0x6c(%rbp)
    be8d:	0f 94 c0             	sete   %al
    be90:	0f b6 c0             	movzbl %al,%eax
    be93:	48 85 c0             	test   %rax,%rax
    be96:	48 8b 45 d0          	mov    -0x30(%rbp),%rax
    be9a:	8b 00                	mov    (%rax),%eax
    be9c:	90                   	nop
    be9d:	89 85 7c ff ff ff    	mov    %eax,-0x84(%rbp)
    bea3:	48 8d 45 b8          	lea    -0x48(%rbp),%rax
    bea7:	48 8d 95 7c ff ff ff 	lea    -0x84(%rbp),%rdx
    beae:	48 8d 0d b3 07 03 00 	lea    0x307b3(%rip),%rcx        # 3c668 <_ZN3c106detailL32kImpracticallyHugeReferenceCountE+0x4>
    beb5:	48 89 ce             	mov    %rcx,%rsi
    beb8:	48 89 c7             	mov    %rax,%rdi
    bebb:	e8 e9 fd ff ff       	call   bca9 <_ZN3c103strIJA92_cjEEEDcDpRKT_>
    bec0:	48 8b 45 f8          	mov    -0x8(%rbp),%rax
    bec4:	64 48 2b 04 25 28 00 	sub    %fs:0x28,%rax
    becb:	00 00 
    becd:	74 05                	je     bed4 <_ZN3c1020intrusive_ptr_targetD1Ev+0x1b4>
    becf:	e8 2c d2 ff ff       	call   9100 <__stack_chk_fail@plt>
    bed4:	48 8d 45 b8          	lea    -0x48(%rbp),%rax
    bed8:	49 89 c0             	mov    %rax,%r8
    bedb:	48 8d 05 e6 07 03 00 	lea    0x307e6(%rip),%rax        # 3c6c8 <_ZN3c106detailL32kImpracticallyHugeReferenceCountE+0x64>
    bee2:	48 89 c1             	mov    %rax,%rcx
    bee5:	ba 76 00 00 00       	mov    $0x76,%edx
    beea:	48 8d 05 f7 08 03 00 	lea    0x308f7(%rip),%rax        # 3c7e8 <_ZN3c106detailL32kImpracticallyHugeReferenceCountE+0x184>
    bef1:	48 89 c6             	mov    %rax,%rsi
    bef4:	48 8d 05 73 09 03 00 	lea    0x30973(%rip),%rax        # 3c86e <_ZN3c106detailL32kImpracticallyHugeReferenceCountE+0x20a>
    befb:	48 89 c7             	mov    %rax,%rdi
    befe:	e8 5d d4 ff ff       	call   9360 <_ZN3c106detail23torchInternalAssertFailEPKcS2_jS2_RKSs@plt>
    bf03:	48 8b 85 68 ff ff ff 	mov    -0x98(%rbp),%rax
    bf0a:	48 83 c0 0c          	add    $0xc,%rax
    bf0e:	48 89 45 d8          	mov    %rax,-0x28(%rbp)
    bf12:	c7 45 98 05 00 00 00 	movl   $0x5,-0x68(%rbp)
    bf19:	8b 45 98             	mov    -0x68(%rbp),%eax
    bf1c:	be ff ff 00 00       	mov    $0xffff,%esi
    bf21:	89 c7                	mov    %eax,%edi
    bf23:	e8 c1 f9 ff ff       	call   b8e9 <_ZStanSt12memory_orderSt23__memory_order_modifier>
    bf28:	89 45 9c             	mov    %eax,-0x64(%rbp)
    bf2b:	b8 00 00 00 00       	mov    $0x0,%eax
    bf30:	84 c0                	test   %al,%al
    bf32:	74 0d                	je     bf41 <_ZN3c1020intrusive_ptr_targetD1Ev+0x221>
    bf34:	83 7d 9c 03          	cmpl   $0x3,-0x64(%rbp)
    bf38:	0f 94 c0             	sete   %al
    bf3b:	0f b6 c0             	movzbl %al,%eax
    bf3e:	48 85 c0             	test   %rax,%rax
    bf41:	b8 00 00 00 00       	mov    $0x0,%eax
    bf46:	84 c0                	test   %al,%al
    bf48:	74 0d                	je     bf57 <_ZN3c1020intrusive_ptr_targetD1Ev+0x237>
    bf4a:	83 7d 9c 04          	cmpl   $0x4,-0x64(%rbp)
    bf4e:	0f 94 c0             	sete   %al
    bf51:	0f b6 c0             	movzbl %al,%eax
    bf54:	48 85 c0             	test   %rax,%rax
    bf57:	48 8b 45 d8          	mov    -0x28(%rbp),%rax
    bf5b:	8b 00                	mov    (%rax),%eax
    bf5d:	90                   	nop
    bf5e:	83 f8 01             	cmp    $0x1,%eax
    bf61:	0f 95 c0             	setne  %al
    bf64:	0f b6 c0             	movzbl %al,%eax
    bf67:	48 85 c0             	test   %rax,%rax
    bf6a:	74 6f                	je     bfdb <_ZN3c1020intrusive_ptr_targetD1Ev+0x2bb>
    bf6c:	48 8b 85 68 ff ff ff 	mov    -0x98(%rbp),%rax
    bf73:	48 83 c0 0c          	add    $0xc,%rax
    bf77:	48 89 45 e0          	mov    %rax,-0x20(%rbp)
    bf7b:	c7 45 a0 05 00 00 00 	movl   $0x5,-0x60(%rbp)
    bf82:	8b 45 a0             	mov    -0x60(%rbp),%eax
    bf85:	be ff ff 00 00       	mov    $0xffff,%esi
    bf8a:	89 c7                	mov    %eax,%edi
    bf8c:	e8 58 f9 ff ff       	call   b8e9 <_ZStanSt12memory_orderSt23__memory_order_modifier>
    bf91:	89 45 a4             	mov    %eax,-0x5c(%rbp)
    bf94:	b8 00 00 00 00       	mov    $0x0,%eax
    bf99:	84 c0                	test   %al,%al
    bf9b:	74 0d                	je     bfaa <_ZN3c1020intrusive_ptr_targetD1Ev+0x28a>
    bf9d:	83 7d a4 03          	cmpl   $0x3,-0x5c(%rbp)
    bfa1:	0f 94 c0             	sete   %al
    bfa4:	0f b6 c0             	movzbl %al,%eax
    bfa7:	48 85 c0             	test   %rax,%rax
    bfaa:	b8 00 00 00 00       	mov    $0x0,%eax
    bfaf:	84 c0                	test   %al,%al
    bfb1:	74 0d                	je     bfc0 <_ZN3c1020intrusive_ptr_targetD1Ev+0x2a0>
    bfb3:	83 7d a4 04          	cmpl   $0x4,-0x5c(%rbp)
    bfb7:	0f 94 c0             	sete   %al
    bfba:	0f b6 c0             	movzbl %al,%eax
    bfbd:	48 85 c0             	test   %rax,%rax
    bfc0:	48 8b 45 e0          	mov    -0x20(%rbp),%rax
    bfc4:	8b 00                	mov    (%rax),%eax
    bfc6:	90                   	nop
    bfc7:	85 c0                	test   %eax,%eax
    bfc9:	0f 95 c0             	setne  %al
    bfcc:	0f b6 c0             	movzbl %al,%eax
    bfcf:	48 85 c0             	test   %rax,%rax
    bfd2:	74 07                	je     bfdb <_ZN3c1020intrusive_ptr_targetD1Ev+0x2bb>
    bfd4:	b8 01 00 00 00       	mov    $0x1,%eax
    bfd9:	eb 05                	jmp    bfe0 <_ZN3c1020intrusive_ptr_targetD1Ev+0x2c0>
    bfdb:	b8 00 00 00 00       	mov    $0x0,%eax
    bfe0:	84 c0                	test   %al,%al
    bfe2:	74 72                	je     c056 <_ZN3c1020intrusive_ptr_targetD1Ev+0x336>
    bfe4:	48 8b 85 68 ff ff ff 	mov    -0x98(%rbp),%rax
    bfeb:	48 83 c0 0c          	add    $0xc,%rax
    bfef:	48 89 45 e8          	mov    %rax,-0x18(%rbp)
    bff3:	c7 45 a8 05 00 00 00 	movl   $0x5,-0x58(%rbp)
    bffa:	8b 45 a8             	mov    -0x58(%rbp),%eax
    bffd:	be ff ff 00 00       	mov    $0xffff,%esi
    c002:	89 c7                	mov    %eax,%edi
    c004:	e8 e0 f8 ff ff       	call   b8e9 <_ZStanSt12memory_orderSt23__memory_order_modifier>
    c009:	89 45 ac             	mov    %eax,-0x54(%rbp)
    c00c:	b8 00 00 00 00       	mov    $0x0,%eax
    c011:	84 c0                	test   %al,%al
    c013:	74 0d                	je     c022 <_ZN3c1020intrusive_ptr_targetD1Ev+0x302>
    c015:	83 7d ac 03          	cmpl   $0x3,-0x54(%rbp)
    c019:	0f 94 c0             	sete   %al
    c01c:	0f b6 c0             	movzbl %al,%eax
    c01f:	48 85 c0             	test   %rax,%rax
    c022:	b8 00 00 00 00       	mov    $0x0,%eax
    c027:	84 c0                	test   %al,%al
    c029:	74 0d                	je     c038 <_ZN3c1020intrusive_ptr_targetD1Ev+0x318>
    c02b:	83 7d ac 04          	cmpl   $0x4,-0x54(%rbp)
    c02f:	0f 94 c0             	sete   %al
    c032:	0f b6 c0             	movzbl %al,%eax
    c035:	48 85 c0             	test   %rax,%rax
    c038:	48 8b 45 e8          	mov    -0x18(%rbp),%rax
    c03c:	8b 00                	mov    (%rax),%eax
    c03e:	90                   	nop
    c03f:	3d fe ff ff 0f       	cmp    $0xffffffe,%eax
    c044:	0f 95 c0             	setne  %al
    c047:	0f b6 c0             	movzbl %al,%eax
    c04a:	48 85 c0             	test   %rax,%rax
    c04d:	74 07                	je     c056 <_ZN3c1020intrusive_ptr_targetD1Ev+0x336>
    c04f:	b8 01 00 00 00       	mov    $0x1,%eax
    c054:	eb 05                	jmp    c05b <_ZN3c1020intrusive_ptr_targetD1Ev+0x33b>
    c056:	b8 00 00 00 00       	mov    $0x0,%eax
    c05b:	84 c0                	test   %al,%al
    c05d:	74 72                	je     c0d1 <_ZN3c1020intrusive_ptr_targetD1Ev+0x3b1>
    c05f:	48 8b 85 68 ff ff ff 	mov    -0x98(%rbp),%rax
    c066:	48 83 c0 0c          	add    $0xc,%rax
    c06a:	48 89 45 f0          	mov    %rax,-0x10(%rbp)
    c06e:	c7 45 b0 05 00 00 00 	movl   $0x5,-0x50(%rbp)
    c075:	8b 45 b0             	mov    -0x50(%rbp),%eax
    c078:	be ff ff 00 00       	mov    $0xffff,%esi
    c07d:	89 c7                	mov    %eax,%edi
    c07f:	e8 65 f8 ff ff       	call   b8e9 <_ZStanSt12memory_orderSt23__memory_order_modifier>
    c084:	89 45 b4             	mov    %eax,-0x4c(%rbp)
    c087:	b8 00 00 00 00       	mov    $0x0,%eax
    c08c:	84 c0                	test   %al,%al
    c08e:	74 0d                	je     c09d <_ZN3c1020intrusive_ptr_targetD1Ev+0x37d>
    c090:	83 7d b4 03          	cmpl   $0x3,-0x4c(%rbp)
    c094:	0f 94 c0             	sete   %al
    c097:	0f b6 c0             	movzbl %al,%eax
    c09a:	48 85 c0             	test   %rax,%rax
    c09d:	b8 00 00 00 00       	mov    $0x0,%eax
    c0a2:	84 c0                	test   %al,%al
    c0a4:	74 0d                	je     c0b3 <_ZN3c1020intrusive_ptr_targetD1Ev+0x393>
    c0a6:	83 7d b4 04          	cmpl   $0x4,-0x4c(%rbp)
    c0aa:	0f 94 c0             	sete   %al
    c0ad:	0f b6 c0             	movzbl %al,%eax
    c0b0:	48 85 c0             	test   %rax,%rax
    c0b3:	48 8b 45 f0          	mov    -0x10(%rbp),%rax
    c0b7:	8b 00                	mov    (%rax),%eax
    c0b9:	90                   	nop
    c0ba:	3d ff ff ff 0f       	cmp    $0xfffffff,%eax
    c0bf:	0f 95 c0             	setne  %al
    c0c2:	0f b6 c0             	movzbl %al,%eax
    c0c5:	48 85 c0             	test   %rax,%rax
    c0c8:	74 07                	je     c0d1 <_ZN3c1020intrusive_ptr_targetD1Ev+0x3b1>
    c0ca:	b8 01 00 00 00       	mov    $0x1,%eax
    c0cf:	eb 05                	jmp    c0d6 <_ZN3c1020intrusive_ptr_targetD1Ev+0x3b6>
    c0d1:	b8 00 00 00 00       	mov    $0x0,%eax
    c0d6:	0f b6 c0             	movzbl %al,%eax
    c0d9:	48 85 c0             	test   %rax,%rax
    c0dc:	0f 95 c0             	setne  %al
    c0df:	84 c0                	test   %al,%al
    c0e1:	74 4e                	je     c131 <_ZN3c1020intrusive_ptr_targetD1Ev+0x411>
    c0e3:	48 8d 05 9e 07 03 00 	lea    0x3079e(%rip),%rax        # 3c888 <_ZN3c106detailL32kImpracticallyHugeReferenceCountE+0x224>
    c0ea:	48 89 c7             	mov    %rax,%rdi
    c0ed:	e8 13 fc ff ff       	call   bd05 <_ZN3c103strIJA82_cEEEDcDpRKT_>
    c0f2:	48 8b 55 f8          	mov    -0x8(%rbp),%rdx
    c0f6:	64 48 2b 14 25 28 00 	sub    %fs:0x28,%rdx
    c0fd:	00 00 
    c0ff:	74 05                	je     c106 <_ZN3c1020intrusive_ptr_targetD1Ev+0x3e6>
    c101:	e8 fa cf ff ff       	call   9100 <__stack_chk_fail@plt>
    c106:	49 89 c0             	mov    %rax,%r8
    c109:	48 8d 05 d0 07 03 00 	lea    0x307d0(%rip),%rax        # 3c8e0 <_ZN3c106detailL32kImpracticallyHugeReferenceCountE+0x27c>
    c110:	48 89 c1             	mov    %rax,%rcx
    c113:	ba 85 00 00 00       	mov    $0x85,%edx
    c118:	48 8d 05 c9 06 03 00 	lea    0x306c9(%rip),%rax        # 3c7e8 <_ZN3c106detailL32kImpracticallyHugeReferenceCountE+0x184>
    c11f:	48 89 c6             	mov    %rax,%rsi
    c122:	48 8d 05 45 07 03 00 	lea    0x30745(%rip),%rax        # 3c86e <_ZN3c106detailL32kImpracticallyHugeReferenceCountE+0x20a>
    c129:	48 89 c7             	mov    %rax,%rdi
    c12c:	e8 df d0 ff ff       	call   9210 <_ZN3c106detail23torchInternalAssertFailEPKcS2_jS2_S2_@plt>
    c131:	90                   	nop
    c132:	48 8b 45 f8          	mov    -0x8(%rbp),%rax
    c136:	64 48 2b 04 25 28 00 	sub    %fs:0x28,%rax
    c13d:	00 00 
    c13f:	74 05                	je     c146 <_ZN3c1020intrusive_ptr_targetD1Ev+0x426>
    c141:	e8 ba cf ff ff       	call   9100 <__stack_chk_fail@plt>
    c146:	c9                   	leave
    c147:	c3                   	ret

000000000000c148 <_ZN3c1020intrusive_ptr_targetD0Ev>:
    c148:	55                   	push   %rbp
    c149:	48 89 e5             	mov    %rsp,%rbp
    c14c:	48 83 ec 10          	sub    $0x10,%rsp
    c150:	48 89 7d f8          	mov    %rdi,-0x8(%rbp)
    c154:	48 8b 45 f8          	mov    -0x8(%rbp),%rax
    c158:	48 89 c7             	mov    %rax,%rdi
    c15b:	e8 c0 fb ff ff       	call   bd20 <_ZN3c1020intrusive_ptr_targetD1Ev>
    c160:	48 8b 45 f8          	mov    -0x8(%rbp),%rax
    c164:	be 10 00 00 00       	mov    $0x10,%esi
    c169:	48 89 c7             	mov    %rax,%rdi
    c16c:	e8 3f d5 ff ff       	call   96b0 <_ZdlPvm@plt>
    c171:	c9                   	leave
    c172:	c3                   	ret
    c173:	90                   	nop

000000000000c174 <_ZNSt13__atomic_baseIjEC1Ej>:
    c174:	55                   	push   %rbp
    c175:	48 89 e5             	mov    %rsp,%rbp
    c178:	48 89 7d f8          	mov    %rdi,-0x8(%rbp)
    c17c:	89 75 f4             	mov    %esi,-0xc(%rbp)
    c17f:	48 8b 45 f8          	mov    -0x8(%rbp),%rax
    c183:	8b 55 f4             	mov    -0xc(%rbp),%edx
    c186:	89 10                	mov    %edx,(%rax)
    c188:	90                   	nop
    c189:	5d                   	pop    %rbp
    c18a:	c3                   	ret
    c18b:	90                   	nop

000000000000c18c <_ZN3c1020intrusive_ptr_targetC1Ev>:
    c18c:	55                   	push   %rbp
    c18d:	48 89 e5             	mov    %rsp,%rbp
    c190:	48 83 ec 10          	sub    $0x10,%rsp
    c194:	48 89 7d f8          	mov    %rdi,-0x8(%rbp)
    c198:	48 8d 15 e1 71 05 00 	lea    0x571e1(%rip),%rdx        # 63380 <_ZTVN3c1020intrusive_ptr_targetE+0x10>
    c19f:	48 8b 45 f8          	mov    -0x8(%rbp),%rax
    c1a3:	48 89 10             	mov    %rdx,(%rax)
    c1a6:	48 8b 45 f8          	mov    -0x8(%rbp),%rax
    c1aa:	48 83 c0 08          	add    $0x8,%rax
    c1ae:	be 00 00 00 00       	mov    $0x0,%esi
    c1b3:	48 89 c7             	mov    %rax,%rdi
    c1b6:	e8 cb fa ff ff       	call   bc86 <_ZNSt6atomicIjEC1Ej>
    c1bb:	48 8b 45 f8          	mov    -0x8(%rbp),%rax
    c1bf:	48 83 c0 0c          	add    $0xc,%rax
    c1c3:	be 00 00 00 00       	mov    $0x0,%esi
    c1c8:	48 89 c7             	mov    %rax,%rdi
    c1cb:	e8 b6 fa ff ff       	call   bc86 <_ZNSt6atomicIjEC1Ej>
    c1d0:	90                   	nop
    c1d1:	c9                   	leave
    c1d2:	c3                   	ret
    c1d3:	90                   	nop

000000000000c1d4 <_ZN3c1020intrusive_ptr_target17release_resourcesEv>:
    c1d4:	55                   	push   %rbp
    c1d5:	48 89 e5             	mov    %rsp,%rbp
    c1d8:	48 89 7d f8          	mov    %rdi,-0x8(%rbp)
    c1dc:	90                   	nop
    c1dd:	5d                   	pop    %rbp
    c1de:	c3                   	ret

000000000000c1df <_ZN3c106detail25atomic_refcount_incrementERSt6atomicIjE>:
    c1df:	55                   	push   %rbp
    c1e0:	48 89 e5             	mov    %rsp,%rbp
    c1e3:	48 89 7d e8          	mov    %rdi,-0x18(%rbp)
    c1e7:	48 8b 45 e8          	mov    -0x18(%rbp),%rax
    c1eb:	48 89 45 f8          	mov    %rax,-0x8(%rbp)
    c1ef:	c7 45 f0 01 00 00 00 	movl   $0x1,-0x10(%rbp)
    c1f6:	c7 45 f4 04 00 00 00 	movl   $0x4,-0xc(%rbp)
    c1fd:	48 8b 45 f8          	mov    -0x8(%rbp),%rax
    c201:	8b 55 f0             	mov    -0x10(%rbp),%edx
    c204:	f0 0f c1 10          	lock xadd %edx,(%rax)
    c208:	90                   	nop
    c209:	8d 42 01             	lea    0x1(%rdx),%eax
    c20c:	5d                   	pop    %rbp
    c20d:	c3                   	ret

000000000000c20e <_ZN3c106detail25atomic_refcount_decrementERSt6atomicIjE>:
    c20e:	55                   	push   %rbp
    c20f:	48 89 e5             	mov    %rsp,%rbp
    c212:	48 89 7d e8          	mov    %rdi,-0x18(%rbp)
    c216:	48 8b 45 e8          	mov    -0x18(%rbp),%rax
    c21a:	48 89 45 f8          	mov    %rax,-0x8(%rbp)
    c21e:	c7 45 f0 01 00 00 00 	movl   $0x1,-0x10(%rbp)
    c225:	c7 45 f4 04 00 00 00 	movl   $0x4,-0xc(%rbp)
    c22c:	48 8b 45 f8          	mov    -0x8(%rbp),%rax
    c230:	8b 55 f0             	mov    -0x10(%rbp),%edx
    c233:	f7 da                	neg    %edx
    c235:	f0 0f c1 10          	lock xadd %edx,(%rax)
    c239:	90                   	nop
    c23a:	8d 42 ff             	lea    -0x1(%rdx),%eax
    c23d:	5d                   	pop    %rbp
    c23e:	c3                   	ret

000000000000c23f <_ZN3c106detail26atomic_weakcount_decrementERSt6atomicIjE>:
    c23f:	55                   	push   %rbp
    c240:	48 89 e5             	mov    %rsp,%rbp
    c243:	48 89 7d e8          	mov    %rdi,-0x18(%rbp)
    c247:	48 8b 45 e8          	mov    -0x18(%rbp),%rax
    c24b:	48 89 45 f8          	mov    %rax,-0x8(%rbp)
    c24f:	c7 45 f0 01 00 00 00 	movl   $0x1,-0x10(%rbp)
    c256:	c7 45 f4 04 00 00 00 	movl   $0x4,-0xc(%rbp)
    c25d:	48 8b 45 f8          	mov    -0x8(%rbp),%rax
    c261:	8b 55 f0             	mov    -0x10(%rbp),%edx
    c264:	f7 da                	neg    %edx
    c266:	f0 0f c1 10          	lock xadd %edx,(%rax)
    c26a:	90                   	nop
    c26b:	8d 42 ff             	lea    -0x1(%rdx),%eax
    c26e:	5d                   	pop    %rbp
    c26f:	c3                   	ret

000000000000c270 <_ZN3c103strIJA63_cEEEDcDpRKT_>:
    c270:	55                   	push   %rbp
    c271:	48 89 e5             	mov    %rsp,%rbp
    c274:	48 83 ec 10          	sub    $0x10,%rsp
    c278:	48 89 7d f8          	mov    %rdi,-0x8(%rbp)
    c27c:	48 8b 45 f8          	mov    -0x8(%rbp),%rax
    c280:	48 89 c7             	mov    %rax,%rdi
    c283:	e8 05 f1 ff ff       	call   b38d <_ZN3c106detail12_str_wrapperIJPKcEE4callES3_>
    c288:	c9                   	leave
    c289:	c3                   	ret

000000000000c28a <_ZN3c103strIJA154_cEEEDcDpRKT_>:
    c28a:	55                   	push   %rbp
    c28b:	48 89 e5             	mov    %rsp,%rbp
    c28e:	48 83 ec 10          	sub    $0x10,%rsp
    c292:	48 89 7d f8          	mov    %rdi,-0x8(%rbp)
    c296:	48 8b 45 f8          	mov    -0x8(%rbp),%rax
    c29a:	48 89 c7             	mov    %rax,%rdi
    c29d:	e8 eb f0 ff ff       	call   b38d <_ZN3c106detail12_str_wrapperIJPKcEE4callES3_>
    c2a2:	c9                   	leave
    c2a3:	c3                   	ret

000000000000c2a4 <_ZN3c103strIJA68_cEEEDcDpRKT_>:
    c2a4:	55                   	push   %rbp
    c2a5:	48 89 e5             	mov    %rsp,%rbp
    c2a8:	48 83 ec 10          	sub    $0x10,%rsp
    c2ac:	48 89 7d f8          	mov    %rdi,-0x8(%rbp)
    c2b0:	48 8b 45 f8          	mov    -0x8(%rbp),%rax
    c2b4:	48 89 c7             	mov    %rax,%rdi
    c2b7:	e8 d1 f0 ff ff       	call   b38d <_ZN3c106detail12_str_wrapperIJPKcEE4callES3_>
    c2bc:	c9                   	leave
    c2bd:	c3                   	ret

000000000000c2be <_ZN3c103strIJA67_cEEEDcDpRKT_>:
    c2be:	55                   	push   %rbp
    c2bf:	48 89 e5             	mov    %rsp,%rbp
    c2c2:	48 83 ec 10          	sub    $0x10,%rsp
    c2c6:	48 89 7d f8          	mov    %rdi,-0x8(%rbp)
    c2ca:	48 8b 45 f8          	mov    -0x8(%rbp),%rax
    c2ce:	48 89 c7             	mov    %rax,%rdi
    c2d1:	e8 b7 f0 ff ff       	call   b38d <_ZN3c106detail12_str_wrapperIJPKcEE4callES3_>
    c2d6:	c9                   	leave
    c2d7:	c3                   	ret

000000000000c2d8 <_ZN3c103raw13intrusive_ptr6increfEPNS_20intrusive_ptr_targetE>:
    c2d8:	55                   	push   %rbp
    c2d9:	48 89 e5             	mov    %rsp,%rbp
    c2dc:	48 83 ec 10          	sub    $0x10,%rsp
    c2e0:	48 89 7d f8          	mov    %rdi,-0x8(%rbp)
    c2e4:	48 83 7d f8 00       	cmpq   $0x0,-0x8(%rbp)
    c2e9:	74 10                	je     c2fb <_ZN3c103raw13intrusive_ptr6increfEPNS_20intrusive_ptr_targetE+0x23>
    c2eb:	48 8b 45 f8          	mov    -0x8(%rbp),%rax
    c2ef:	48 83 c0 08          	add    $0x8,%rax
    c2f3:	48 89 c7             	mov    %rax,%rdi
    c2f6:	e8 e4 fe ff ff       	call   c1df <_ZN3c106detail25atomic_refcount_incrementERSt6atomicIjE>
    c2fb:	90                   	nop
    c2fc:	c9                   	leave
    c2fd:	c3                   	ret

000000000000c2fe <_ZN3c106detail34intrusive_target_default_null_typeINS_20intrusive_ptr_targetEE9singletonEv>:
    c2fe:	55                   	push   %rbp
    c2ff:	48 89 e5             	mov    %rsp,%rbp
    c302:	b8 00 00 00 00       	mov    $0x0,%eax
    c307:	5d                   	pop    %rbp
    c308:	c3                   	ret

000000000000c309 <_ZN3c103raw13intrusive_ptr6decrefEPNS_20intrusive_ptr_targetE>:
    c309:	55                   	push   %rbp
    c30a:	48 89 e5             	mov    %rsp,%rbp
    c30d:	48 83 ec 20          	sub    $0x20,%rsp
    c311:	48 89 7d e8          	mov    %rdi,-0x18(%rbp)
    c315:	64 48 8b 04 25 28 00 	mov    %fs:0x28,%rax
    c31c:	00 00 
    c31e:	48 89 45 f8          	mov    %rax,-0x8(%rbp)
    c322:	31 c0                	xor    %eax,%eax
    c324:	48 8d 45 f0          	lea    -0x10(%rbp),%rax
    c328:	48 8b 55 e8          	mov    -0x18(%rbp),%rdx
    c32c:	48 89 d6             	mov    %rdx,%rsi
    c32f:	48 89 c7             	mov    %rax,%rdi
    c332:	e8 84 a3 00 00       	call   166bb <_ZN3c1013intrusive_ptrINS_20intrusive_ptr_targetENS_6detail34intrusive_target_default_null_typeIS1_EEE7reclaimEPS1_>
    c337:	48 8d 45 f0          	lea    -0x10(%rbp),%rax
    c33b:	48 89 c7             	mov    %rax,%rdi
    c33e:	e8 e3 a4 00 00       	call   16826 <_ZN3c1013intrusive_ptrINS_20intrusive_ptr_targetENS_6detail34intrusive_target_default_null_typeIS1_EEED1Ev>
    c343:	90                   	nop
    c344:	48 8b 45 f8          	mov    -0x8(%rbp),%rax
    c348:	64 48 2b 04 25 28 00 	sub    %fs:0x28,%rax
    c34f:	00 00 
    c351:	74 05                	je     c358 <_ZN3c103raw13intrusive_ptr6decrefEPNS_20intrusive_ptr_targetE+0x4f>
    c353:	e8 a8 cd ff ff       	call   9100 <__stack_chk_fail@plt>
    c358:	c9                   	leave
    c359:	c3                   	ret

000000000000c35a <_ZN3c106detail34intrusive_target_default_null_typeINS_11SymNodeImplEE9singletonEv>:
    c35a:	55                   	push   %rbp
    c35b:	48 89 e5             	mov    %rsp,%rbp
    c35e:	b8 00 00 00 00       	mov    $0x0,%eax
    c363:	5d                   	pop    %rbp
    c364:	c3                   	ret
    c365:	90                   	nop

000000000000c366 <_ZNKSt19_Optional_base_implIbSt14_Optional_baseIbLb1ELb1EEE13_M_is_engagedEv>:
    c366:	55                   	push   %rbp
    c367:	48 89 e5             	mov    %rsp,%rbp
    c36a:	48 89 7d f8          	mov    %rdi,-0x8(%rbp)
    c36e:	48 8b 45 f8          	mov    -0x8(%rbp),%rax
    c372:	0f b6 40 01          	movzbl 0x1(%rax),%eax
    c376:	5d                   	pop    %rbp
    c377:	c3                   	ret

000000000000c378 <_ZN3c106SymIntC1El>:
    c378:	55                   	push   %rbp
    c379:	48 89 e5             	mov    %rsp,%rbp
    c37c:	48 83 ec 20          	sub    $0x20,%rsp
    c380:	48 89 7d e8          	mov    %rdi,-0x18(%rbp)
    c384:	48 89 75 e0          	mov    %rsi,-0x20(%rbp)
    c388:	48 8b 45 e8          	mov    -0x18(%rbp),%rax
    c38c:	48 8b 55 e0          	mov    -0x20(%rbp),%rdx
    c390:	48 89 10             	mov    %rdx,(%rax)
    c393:	48 8b 45 e8          	mov    -0x18(%rbp),%rax
    c397:	48 89 45 f8          	mov    %rax,-0x8(%rbp)
    c39b:	48 8b 45 f8          	mov    -0x8(%rbp),%rax
    c39f:	48 8b 00             	mov    (%rax),%rax
    c3a2:	48 89 c7             	mov    %rax,%rdi
    c3a5:	e8 75 01 00 00       	call   c51f <_ZN3c106SymInt11check_rangeEl>
    c3aa:	83 f0 01             	xor    $0x1,%eax
    c3ad:	84 c0                	test   %al,%al
    c3af:	74 0c                	je     c3bd <_ZN3c106SymIntC1El+0x45>
    c3b1:	48 8b 45 e8          	mov    -0x18(%rbp),%rax
    c3b5:	48 89 c7             	mov    %rax,%rdi
    c3b8:	e8 33 ce ff ff       	call   91f0 <_ZN3c106SymInt19promote_to_negativeEv@plt>
    c3bd:	90                   	nop
    c3be:	c9                   	leave
    c3bf:	c3                   	ret

000000000000c3c0 <_ZN3c106SymIntC1EOS0_>:
    c3c0:	55                   	push   %rbp
    c3c1:	48 89 e5             	mov    %rsp,%rbp
    c3c4:	48 89 7d f8          	mov    %rdi,-0x8(%rbp)
    c3c8:	48 89 75 f0          	mov    %rsi,-0x10(%rbp)
    c3cc:	48 8b 45 f0          	mov    -0x10(%rbp),%rax
    c3d0:	48 8b 10             	mov    (%rax),%rdx
    c3d3:	48 8b 45 f8          	mov    -0x8(%rbp),%rax
    c3d7:	48 89 10             	mov    %rdx,(%rax)
    c3da:	48 8b 45 f0          	mov    -0x10(%rbp),%rax
    c3de:	48 c7 00 00 00 00 00 	movq   $0x0,(%rax)
    c3e5:	90                   	nop
    c3e6:	5d                   	pop    %rbp
    c3e7:	c3                   	ret

000000000000c3e8 <_ZNK3c106SymInt20toSymNodeImplUnownedEv>:
    c3e8:	55                   	push   %rbp
    c3e9:	48 89 e5             	mov    %rsp,%rbp
    c3ec:	48 83 ec 30          	sub    $0x30,%rsp
    c3f0:	48 89 7d d8          	mov    %rdi,-0x28(%rbp)
    c3f4:	48 8b 45 d8          	mov    -0x28(%rbp),%rax
    c3f8:	48 89 45 f8          	mov    %rax,-0x8(%rbp)
    c3fc:	48 8b 45 f8          	mov    -0x8(%rbp),%rax
    c400:	48 8b 00             	mov    (%rax),%rax
    c403:	48 89 c7             	mov    %rax,%rdi
    c406:	e8 14 01 00 00       	call   c51f <_ZN3c106SymInt11check_rangeEl>
    c40b:	83 f0 01             	xor    $0x1,%eax
    c40e:	83 f0 01             	xor    $0x1,%eax
    c411:	0f b6 c0             	movzbl %al,%eax
    c414:	48 85 c0             	test   %rax,%rax
    c417:	0f 95 c0             	setne  %al
    c41a:	84 c0                	test   %al,%al
    c41c:	74 2d                	je     c44b <_ZNK3c106SymInt20toSymNodeImplUnownedEv+0x63>
    c41e:	e8 81 f3 ff ff       	call   b7a4 <_ZN3c103strIJEEEDcDpRKT_>
    c423:	48 8d 05 36 06 03 00 	lea    0x30636(%rip),%rax        # 3ca60 <_ZN3c106detailL32kImpracticallyHugeReferenceCountE+0x3fc>
    c42a:	48 89 c1             	mov    %rax,%rcx
    c42d:	ba 59 00 00 00       	mov    $0x59,%edx
    c432:	48 8d 05 ff 06 03 00 	lea    0x306ff(%rip),%rax        # 3cb38 <_ZN3c106detailL32kImpracticallyHugeReferenceCountE+0x4d4>
    c439:	48 89 c6             	mov    %rax,%rsi
    c43c:	48 8d 05 74 07 03 00 	lea    0x30774(%rip),%rax        # 3cbb7 <_ZN3c106detailL32kImpracticallyHugeReferenceCountE+0x553>
    c443:	48 89 c7             	mov    %rax,%rdi
    c446:	e8 4f f0 ff ff       	call   b49a <_ZN3c106detail23torchInternalAssertFailEPKcS2_jS2_NS0_22CompileTimeEmptyStringE>
    c44b:	48 8b 45 d8          	mov    -0x28(%rbp),%rax
    c44f:	48 8b 00             	mov    (%rax),%rax
    c452:	48 89 c2             	mov    %rax,%rdx
    c455:	48 b8 ff ff ff ff ff 	movabs $0x1fffffffffffffff,%rax
    c45c:	ff ff 1f 
    c45f:	48 21 d0             	and    %rdx,%rax
    c462:	48 89 45 e0          	mov    %rax,-0x20(%rbp)
    c466:	48 b8 00 00 00 00 00 	movabs $0x2000000000000000,%rax
    c46d:	00 00 20 
    c470:	48 89 45 e8          	mov    %rax,-0x18(%rbp)
    c474:	48 8b 45 e0          	mov    -0x20(%rbp),%rax
    c478:	48 33 45 e8          	xor    -0x18(%rbp),%rax
    c47c:	48 2b 45 e8          	sub    -0x18(%rbp),%rax
    c480:	48 89 45 f0          	mov    %rax,-0x10(%rbp)
    c484:	48 8b 45 f0          	mov    -0x10(%rbp),%rax
    c488:	c9                   	leave
    c489:	c3                   	ret

000000000000c48a <_ZN3c106SymInt8release_Ev>:
    c48a:	55                   	push   %rbp
    c48b:	48 89 e5             	mov    %rsp,%rbp
    c48e:	48 83 ec 30          	sub    $0x30,%rsp
    c492:	48 89 7d d8          	mov    %rdi,-0x28(%rbp)
    c496:	64 48 8b 04 25 28 00 	mov    %fs:0x28,%rax
    c49d:	00 00 
    c49f:	48 89 45 f8          	mov    %rax,-0x8(%rbp)
    c4a3:	31 c0                	xor    %eax,%eax
    c4a5:	48 8b 45 d8          	mov    -0x28(%rbp),%rax
    c4a9:	48 89 45 f0          	mov    %rax,-0x10(%rbp)
    c4ad:	48 8b 45 f0          	mov    -0x10(%rbp),%rax
    c4b1:	48 8b 00             	mov    (%rax),%rax
    c4b4:	48 89 c7             	mov    %rax,%rdi
    c4b7:	e8 63 00 00 00       	call   c51f <_ZN3c106SymInt11check_rangeEl>
    c4bc:	83 f0 01             	xor    $0x1,%eax
    c4bf:	84 c0                	test   %al,%al
    c4c1:	74 2a                	je     c4ed <_ZN3c106SymInt8release_Ev+0x63>
    c4c3:	48 8b 45 d8          	mov    -0x28(%rbp),%rax
    c4c7:	48 89 c7             	mov    %rax,%rdi
    c4ca:	e8 19 ff ff ff       	call   c3e8 <_ZNK3c106SymInt20toSymNodeImplUnownedEv>
    c4cf:	48 89 c2             	mov    %rax,%rdx
    c4d2:	48 8d 45 e8          	lea    -0x18(%rbp),%rax
    c4d6:	48 89 d6             	mov    %rdx,%rsi
    c4d9:	48 89 c7             	mov    %rax,%rdi
    c4dc:	e8 12 a4 00 00       	call   168f3 <_ZN3c1013intrusive_ptrINS_11SymNodeImplENS_6detail34intrusive_target_default_null_typeIS1_EEE7reclaimEPS1_>
    c4e1:	48 8d 45 e8          	lea    -0x18(%rbp),%rax
    c4e5:	48 89 c7             	mov    %rax,%rdi
    c4e8:	e8 55 a3 00 00       	call   16842 <_ZN3c1013intrusive_ptrINS_11SymNodeImplENS_6detail34intrusive_target_default_null_typeIS1_EEED1Ev>
    c4ed:	90                   	nop
    c4ee:	48 8b 45 f8          	mov    -0x8(%rbp),%rax
    c4f2:	64 48 2b 04 25 28 00 	sub    %fs:0x28,%rax
    c4f9:	00 00 
    c4fb:	74 05                	je     c502 <_ZN3c106SymInt8release_Ev+0x78>
    c4fd:	e8 fe cb ff ff       	call   9100 <__stack_chk_fail@plt>
    c502:	c9                   	leave
    c503:	c3                   	ret

000000000000c504 <_ZN3c106SymIntD1Ev>:
    c504:	55                   	push   %rbp
    c505:	48 89 e5             	mov    %rsp,%rbp
    c508:	48 83 ec 10          	sub    $0x10,%rsp
    c50c:	48 89 7d f8          	mov    %rdi,-0x8(%rbp)
    c510:	48 8b 45 f8          	mov    -0x8(%rbp),%rax
    c514:	48 89 c7             	mov    %rax,%rdi
    c517:	e8 6e ff ff ff       	call   c48a <_ZN3c106SymInt8release_Ev>
    c51c:	90                   	nop
    c51d:	c9                   	leave
    c51e:	c3                   	ret

000000000000c51f <_ZN3c106SymInt11check_rangeEl>:
    c51f:	55                   	push   %rbp
    c520:	48 89 e5             	mov    %rsp,%rbp
    c523:	48 89 7d f8          	mov    %rdi,-0x8(%rbp)
    c527:	48 b8 00 00 00 00 00 	movabs $0xc000000000000000,%rax
    c52e:	00 00 c0 
    c531:	48 39 45 f8          	cmp    %rax,-0x8(%rbp)
    c535:	0f 9d c0             	setge  %al
    c538:	5d                   	pop    %rbp
    c539:	c3                   	ret

000000000000c53a <_ZN3c106ScalarC1Ev>:
    c53a:	55                   	push   %rbp
    c53b:	48 89 e5             	mov    %rsp,%rbp
    c53e:	48 83 ec 10          	sub    $0x10,%rsp
    c542:	48 89 7d f8          	mov    %rdi,-0x8(%rbp)
    c546:	48 8b 45 f8          	mov    -0x8(%rbp),%rax
    c54a:	be 00 00 00 00       	mov    $0x0,%esi
    c54f:	48 89 c7             	mov    %rax,%rdi
    c552:	e8 6b 00 00 00       	call   c5c2 <_ZN3c106ScalarC1El>
    c557:	90                   	nop
    c558:	c9                   	leave
    c559:	c3                   	ret

000000000000c55a <_ZN3c106Scalar7destroyEv>:
    c55a:	55                   	push   %rbp
    c55b:	48 89 e5             	mov    %rsp,%rbp
    c55e:	48 83 ec 10          	sub    $0x10,%rsp
    c562:	48 89 7d f8          	mov    %rdi,-0x8(%rbp)
    c566:	48 8b 45 f8          	mov    -0x8(%rbp),%rax
    c56a:	8b 00                	mov    (%rax),%eax
    c56c:	83 f8 06             	cmp    $0x6,%eax
    c56f:	74 16                	je     c587 <_ZN3c106Scalar7destroyEv+0x2d>
    c571:	48 8b 45 f8          	mov    -0x8(%rbp),%rax
    c575:	8b 00                	mov    (%rax),%eax
    c577:	83 f8 05             	cmp    $0x5,%eax
    c57a:	74 0b                	je     c587 <_ZN3c106Scalar7destroyEv+0x2d>
    c57c:	48 8b 45 f8          	mov    -0x8(%rbp),%rax
    c580:	8b 00                	mov    (%rax),%eax
    c582:	83 f8 07             	cmp    $0x7,%eax
    c585:	75 1c                	jne    c5a3 <_ZN3c106Scalar7destroyEv+0x49>
    c587:	48 8b 45 f8          	mov    -0x8(%rbp),%rax
    c58b:	48 8b 40 10          	mov    0x10(%rax),%rax
    c58f:	48 89 c7             	mov    %rax,%rdi
    c592:	e8 72 fd ff ff       	call   c309 <_ZN3c103raw13intrusive_ptr6decrefEPNS_20intrusive_ptr_targetE>
    c597:	48 8b 45 f8          	mov    -0x8(%rbp),%rax
    c59b:	48 c7 40 10 00 00 00 	movq   $0x0,0x10(%rax)
    c5a2:	00 
    c5a3:	90                   	nop
    c5a4:	c9                   	leave
    c5a5:	c3                   	ret

000000000000c5a6 <_ZN3c106ScalarD1Ev>:
    c5a6:	55                   	push   %rbp
    c5a7:	48 89 e5             	mov    %rsp,%rbp
    c5aa:	48 83 ec 10          	sub    $0x10,%rsp
    c5ae:	48 89 7d f8          	mov    %rdi,-0x8(%rbp)
    c5b2:	48 8b 45 f8          	mov    -0x8(%rbp),%rax
    c5b6:	48 89 c7             	mov    %rax,%rdi
    c5b9:	e8 9c ff ff ff       	call   c55a <_ZN3c106Scalar7destroyEv>
    c5be:	90                   	nop
    c5bf:	c9                   	leave
    c5c0:	c3                   	ret
    c5c1:	90                   	nop

000000000000c5c2 <_ZN3c106ScalarC1El>:
    c5c2:	55                   	push   %rbp
    c5c3:	48 89 e5             	mov    %rsp,%rbp
    c5c6:	48 83 ec 10          	sub    $0x10,%rsp
    c5ca:	48 89 7d f8          	mov    %rdi,-0x8(%rbp)
    c5ce:	48 89 75 f0          	mov    %rsi,-0x10(%rbp)
    c5d2:	48 8b 4d f0          	mov    -0x10(%rbp),%rcx
    c5d6:	48 8b 45 f8          	mov    -0x8(%rbp),%rax
    c5da:	ba 01 00 00 00       	mov    $0x1,%edx
    c5df:	48 89 ce             	mov    %rcx,%rsi
    c5e2:	48 89 c7             	mov    %rax,%rdi
    c5e5:	e8 74 a4 00 00       	call   16a5e <_ZN3c106ScalarC1IlLPb0EEET_b>
    c5ea:	90                   	nop
    c5eb:	c9                   	leave
    c5ec:	c3                   	ret
    c5ed:	90                   	nop

000000000000c5ee <_ZN3c106ScalarC1Ef>:
    c5ee:	55                   	push   %rbp
    c5ef:	48 89 e5             	mov    %rsp,%rbp
    c5f2:	48 83 ec 10          	sub    $0x10,%rsp
    c5f6:	48 89 7d f8          	mov    %rdi,-0x8(%rbp)
    c5fa:	f3 0f 11 45 f4       	movss  %xmm0,-0xc(%rbp)
    c5ff:	8b 55 f4             	mov    -0xc(%rbp),%edx
    c602:	48 8b 45 f8          	mov    -0x8(%rbp),%rax
    c606:	be 01 00 00 00       	mov    $0x1,%esi
    c60b:	66 0f 6e c2          	movd   %edx,%xmm0
    c60f:	48 89 c7             	mov    %rax,%rdi
    c612:	e8 8d a4 00 00       	call   16aa4 <_ZN3c106ScalarC1IfLPb0EEET_b>
    c617:	90                   	nop
    c618:	c9                   	leave
    c619:	c3                   	ret

000000000000c61a <_ZN3c106ScalarC1Ed>:
    c61a:	55                   	push   %rbp
    c61b:	48 89 e5             	mov    %rsp,%rbp
    c61e:	48 83 ec 10          	sub    $0x10,%rsp
    c622:	48 89 7d f8          	mov    %rdi,-0x8(%rbp)
    c626:	f2 0f 11 45 f0       	movsd  %xmm0,-0x10(%rbp)
    c62b:	48 8b 55 f0          	mov    -0x10(%rbp),%rdx
    c62f:	48 8b 45 f8          	mov    -0x8(%rbp),%rax
    c633:	be 01 00 00 00       	mov    $0x1,%esi
    c638:	66 48 0f 6e c2       	movq   %rdx,%xmm0
    c63d:	48 89 c7             	mov    %rax,%rdi
    c640:	e8 ab a4 00 00       	call   16af0 <_ZN3c106ScalarC1IdLPb0EEET_b>
    c645:	90                   	nop
    c646:	c9                   	leave
    c647:	c3                   	ret

000000000000c648 <_ZNRSt8optionalIbEdeEv>:
    c648:	55                   	push   %rbp
    c649:	48 89 e5             	mov    %rsp,%rbp
    c64c:	48 83 ec 10          	sub    $0x10,%rsp
    c650:	48 89 7d f8          	mov    %rdi,-0x8(%rbp)
    c654:	48 8b 45 f8          	mov    -0x8(%rbp),%rax
    c658:	48 89 c7             	mov    %rax,%rdi
    c65b:	e8 02 00 00 00       	call   c662 <_ZNSt19_Optional_base_implIbSt14_Optional_baseIbLb1ELb1EEE6_M_getEv>
    c660:	c9                   	leave
    c661:	c3                   	ret

000000000000c662 <_ZNSt19_Optional_base_implIbSt14_Optional_baseIbLb1ELb1EEE6_M_getEv>:
    c662:	55                   	push   %rbp
    c663:	48 89 e5             	mov    %rsp,%rbp
    c666:	48 83 ec 10          	sub    $0x10,%rsp
    c66a:	48 89 7d f8          	mov    %rdi,-0x8(%rbp)
    c66e:	b8 00 00 00 00       	mov    $0x0,%eax
    c673:	84 c0                	test   %al,%al
    c675:	74 1a                	je     c691 <_ZNSt19_Optional_base_implIbSt14_Optional_baseIbLb1ELb1EEE6_M_getEv+0x2f>
    c677:	48 8b 45 f8          	mov    -0x8(%rbp),%rax
    c67b:	48 89 c7             	mov    %rax,%rdi
    c67e:	e8 e3 fc ff ff       	call   c366 <_ZNKSt19_Optional_base_implIbSt14_Optional_baseIbLb1ELb1EEE13_M_is_engagedEv>
    c683:	83 f0 01             	xor    $0x1,%eax
    c686:	0f b6 c0             	movzbl %al,%eax
    c689:	48 85 c0             	test   %rax,%rax
    c68c:	0f 95 c0             	setne  %al
    c68f:	84 c0                	test   %al,%al
    c691:	48 8b 45 f8          	mov    -0x8(%rbp),%rax
    c695:	48 89 c7             	mov    %rax,%rdi
    c698:	e8 af a4 00 00       	call   16b4c <_ZNSt22_Optional_payload_baseIbE6_M_getEv>
    c69d:	c9                   	leave
    c69e:	c3                   	ret
    c69f:	90                   	nop

000000000000c6a0 <_ZN3c106Scalar3v_tC1Ev>:
    c6a0:	55                   	push   %rbp
    c6a1:	48 89 e5             	mov    %rsp,%rbp
    c6a4:	48 89 7d f8          	mov    %rdi,-0x8(%rbp)
    c6a8:	48 8b 45 f8          	mov    -0x8(%rbp),%rax
    c6ac:	66 0f ef c0          	pxor   %xmm0,%xmm0
    c6b0:	f2 0f 11 00          	movsd  %xmm0,(%rax)
    c6b4:	90                   	nop
    c6b5:	5d                   	pop    %rbp
    c6b6:	c3                   	ret

000000000000c6b7 <_ZNSt6chronoltIlSt5ratioILl1ELl1000000000EElS2_EEbRKNS_8durationIT_T0_EERKNS3_IT1_T2_EE>:
    c6b7:	55                   	push   %rbp
    c6b8:	48 89 e5             	mov    %rsp,%rbp
    c6bb:	53                   	push   %rbx
    c6bc:	48 83 ec 38          	sub    $0x38,%rsp
    c6c0:	48 89 7d c8          	mov    %rdi,-0x38(%rbp)
    c6c4:	48 89 75 c0          	mov    %rsi,-0x40(%rbp)
    c6c8:	64 48 8b 04 25 28 00 	mov    %fs:0x28,%rax
    c6cf:	00 00 
    c6d1:	48 89 45 e8          	mov    %rax,-0x18(%rbp)
    c6d5:	31 c0                	xor    %eax,%eax
    c6d7:	48 8b 45 c8          	mov    -0x38(%rbp),%rax
    c6db:	48 8b 00             	mov    (%rax),%rax
    c6de:	48 89 45 d8          	mov    %rax,-0x28(%rbp)
    c6e2:	48 8d 45 d8          	lea    -0x28(%rbp),%rax
    c6e6:	48 89 c7             	mov    %rax,%rdi
    c6e9:	e8 58 00 00 00       	call   c746 <_ZNKSt6chrono8durationIlSt5ratioILl1ELl1000000000EEE5countEv>
    c6ee:	48 89 c3             	mov    %rax,%rbx
    c6f1:	48 8b 45 c0          	mov    -0x40(%rbp),%rax
    c6f5:	48 8b 00             	mov    (%rax),%rax
    c6f8:	48 89 45 e0          	mov    %rax,-0x20(%rbp)
    c6fc:	48 8d 45 e0          	lea    -0x20(%rbp),%rax
    c700:	48 89 c7             	mov    %rax,%rdi
    c703:	e8 3e 00 00 00       	call   c746 <_ZNKSt6chrono8durationIlSt5ratioILl1ELl1000000000EEE5countEv>
    c708:	48 39 c3             	cmp    %rax,%rbx
    c70b:	0f 9c c0             	setl   %al
    c70e:	48 8b 55 e8          	mov    -0x18(%rbp),%rdx
    c712:	64 48 2b 14 25 28 00 	sub    %fs:0x28,%rdx
    c719:	00 00 
    c71b:	74 05                	je     c722 <_ZNSt6chronoltIlSt5ratioILl1ELl1000000000EElS2_EEbRKNS_8durationIT_T0_EERKNS3_IT1_T2_EE+0x6b>
    c71d:	e8 de c9 ff ff       	call   9100 <__stack_chk_fail@plt>
    c722:	48 8b 5d f8          	mov    -0x8(%rbp),%rbx
    c726:	c9                   	leave
    c727:	c3                   	ret

000000000000c728 <_ZNSt6chrono8durationIlSt5ratioILl1ELl1000000000EEEC1IlvEERKT_>:
    c728:	55                   	push   %rbp
    c729:	48 89 e5             	mov    %rsp,%rbp
    c72c:	48 89 7d f8          	mov    %rdi,-0x8(%rbp)
    c730:	48 89 75 f0          	mov    %rsi,-0x10(%rbp)
    c734:	48 8b 45 f0          	mov    -0x10(%rbp),%rax
    c738:	48 8b 10             	mov    (%rax),%rdx
    c73b:	48 8b 45 f8          	mov    -0x8(%rbp),%rax
    c73f:	48 89 10             	mov    %rdx,(%rax)
    c742:	90                   	nop
    c743:	5d                   	pop    %rbp
    c744:	c3                   	ret
    c745:	90                   	nop

000000000000c746 <_ZNKSt6chrono8durationIlSt5ratioILl1ELl1000000000EEE5countEv>:
    c746:	55                   	push   %rbp
    c747:	48 89 e5             	mov    %rsp,%rbp
    c74a:	48 89 7d f8          	mov    %rdi,-0x8(%rbp)
    c74e:	48 8b 45 f8          	mov    -0x8(%rbp),%rax
    c752:	48 8b 00             	mov    (%rax),%rax
    c755:	5d                   	pop    %rbp
    c756:	c3                   	ret
    c757:	90                   	nop

000000000000c758 <_ZNSt6chrono8durationIlSt5ratioILl1ELl1EEEC1IlvEERKT_>:
    c758:	55                   	push   %rbp
    c759:	48 89 e5             	mov    %rsp,%rbp
    c75c:	48 89 7d f8          	mov    %rdi,-0x8(%rbp)
    c760:	48 89 75 f0          	mov    %rsi,-0x10(%rbp)
    c764:	48 8b 45 f0          	mov    -0x10(%rbp),%rax
    c768:	48 8b 10             	mov    (%rax),%rdx
    c76b:	48 8b 45 f8          	mov    -0x8(%rbp),%rax
    c76f:	48 89 10             	mov    %rdx,(%rax)
    c772:	90                   	nop
    c773:	5d                   	pop    %rbp
    c774:	c3                   	ret
    c775:	90                   	nop

000000000000c776 <_ZNSt5mutex4lockEv>:
    c776:	55                   	push   %rbp
    c777:	48 89 e5             	mov    %rsp,%rbp
    c77a:	48 83 ec 20          	sub    $0x20,%rsp
    c77e:	48 89 7d e8          	mov    %rdi,-0x18(%rbp)
    c782:	48 8b 45 e8          	mov    -0x18(%rbp),%rax
    c786:	48 89 c7             	mov    %rax,%rdi
    c789:	e8 d4 e9 ff ff       	call   b162 <_ZL20__gthread_mutex_lockP15pthread_mutex_t>
    c78e:	89 45 fc             	mov    %eax,-0x4(%rbp)
    c791:	83 7d fc 00          	cmpl   $0x0,-0x4(%rbp)
    c795:	74 0a                	je     c7a1 <_ZNSt5mutex4lockEv+0x2b>
    c797:	8b 45 fc             	mov    -0x4(%rbp),%eax
    c79a:	89 c7                	mov    %eax,%edi
    c79c:	e8 1f ca ff ff       	call   91c0 <_ZSt20__throw_system_errori@plt>
    c7a1:	90                   	nop
    c7a2:	c9                   	leave
    c7a3:	c3                   	ret

000000000000c7a4 <_ZNSt5mutex6unlockEv>:
    c7a4:	55                   	push   %rbp
    c7a5:	48 89 e5             	mov    %rsp,%rbp
    c7a8:	48 83 ec 10          	sub    $0x10,%rsp
    c7ac:	48 89 7d f8          	mov    %rdi,-0x8(%rbp)
    c7b0:	48 8b 45 f8          	mov    -0x8(%rbp),%rax
    c7b4:	48 89 c7             	mov    %rax,%rdi
    c7b7:	e8 d5 e9 ff ff       	call   b191 <_ZL22__gthread_mutex_unlockP15pthread_mutex_t>
    c7bc:	90                   	nop
    c7bd:	c9                   	leave
    c7be:	c3                   	ret
    c7bf:	90                   	nop

000000000000c7c0 <_ZNSt5mutex13native_handleEv>:
    c7c0:	55                   	push   %rbp
    c7c1:	48 89 e5             	mov    %rsp,%rbp
    c7c4:	48 89 7d f8          	mov    %rdi,-0x8(%rbp)
    c7c8:	48 8b 45 f8          	mov    -0x8(%rbp),%rax
    c7cc:	5d                   	pop    %rbp
    c7cd:	c3                   	ret

000000000000c7ce <_ZNSt9__condvar10wait_untilERSt5mutexiR8timespec>:
    c7ce:	55                   	push   %rbp
    c7cf:	48 89 e5             	mov    %rsp,%rbp
    c7d2:	48 83 ec 20          	sub    $0x20,%rsp
    c7d6:	48 89 7d f8          	mov    %rdi,-0x8(%rbp)
    c7da:	48 89 75 f0          	mov    %rsi,-0x10(%rbp)
    c7de:	89 55 ec             	mov    %edx,-0x14(%rbp)
    c7e1:	48 89 4d e0          	mov    %rcx,-0x20(%rbp)
    c7e5:	48 8b 45 f0          	mov    -0x10(%rbp),%rax
    c7e9:	48 89 c7             	mov    %rax,%rdi
    c7ec:	e8 cf ff ff ff       	call   c7c0 <_ZNSt5mutex13native_handleEv>
    c7f1:	48 89 c6             	mov    %rax,%rsi
    c7f4:	48 8b 45 f8          	mov    -0x8(%rbp),%rax
    c7f8:	48 8b 4d e0          	mov    -0x20(%rbp),%rcx
    c7fc:	8b 55 ec             	mov    -0x14(%rbp),%edx
    c7ff:	48 89 c7             	mov    %rax,%rdi
    c802:	e8 39 cc ff ff       	call   9440 <pthread_cond_clockwait@plt>
    c807:	90                   	nop
    c808:	c9                   	leave
    c809:	c3                   	ret

000000000000c80a <_ZN6caffe28TypeMetaC1Et>:
    c80a:	55                   	push   %rbp
    c80b:	48 89 e5             	mov    %rsp,%rbp
    c80e:	48 89 7d f8          	mov    %rdi,-0x8(%rbp)
    c812:	89 f0                	mov    %esi,%eax
    c814:	66 89 45 f4          	mov    %ax,-0xc(%rbp)
    c818:	48 8b 45 f8          	mov    -0x8(%rbp),%rax
    c81c:	0f b7 55 f4          	movzwl -0xc(%rbp),%edx
    c820:	66 89 10             	mov    %dx,(%rax)
    c823:	90                   	nop
    c824:	5d                   	pop    %rbp
    c825:	c3                   	ret

000000000000c826 <_ZNK6caffe28TypeMeta12isScalarTypeEv>:
    c826:	55                   	push   %rbp
    c827:	48 89 e5             	mov    %rsp,%rbp
    c82a:	48 89 7d f8          	mov    %rdi,-0x8(%rbp)
    c82e:	48 8b 45 f8          	mov    -0x8(%rbp),%rax
    c832:	0f b7 00             	movzwl (%rax),%eax
    c835:	66 83 f8 25          	cmp    $0x25,%ax
    c839:	0f 96 c0             	setbe  %al
    c83c:	5d                   	pop    %rbp
    c83d:	c3                   	ret

000000000000c83e <_ZN3c103strIJA25_cNS_10ScalarTypeEA28_cEEEDcDpRKT_>:
    c83e:	55                   	push   %rbp
    c83f:	48 89 e5             	mov    %rsp,%rbp
    c842:	48 83 ec 40          	sub    $0x40,%rsp
    c846:	48 89 7d d8          	mov    %rdi,-0x28(%rbp)
    c84a:	48 89 75 d0          	mov    %rsi,-0x30(%rbp)
    c84e:	48 89 55 c8          	mov    %rdx,-0x38(%rbp)
    c852:	48 89 4d c0          	mov    %rcx,-0x40(%rbp)
    c856:	64 48 8b 04 25 28 00 	mov    %fs:0x28,%rax
    c85d:	00 00 
    c85f:	48 89 45 f8          	mov    %rax,-0x8(%rbp)
    c863:	31 c0                	xor    %eax,%eax
    c865:	48 8b 45 c0          	mov    -0x40(%rbp),%rax
    c869:	48 89 45 f0          	mov    %rax,-0x10(%rbp)
    c86d:	48 8b 45 d0          	mov    -0x30(%rbp),%rax
    c871:	48 89 45 e8          	mov    %rax,-0x18(%rbp)
    c875:	48 8b 45 d8          	mov    -0x28(%rbp),%rax
    c879:	48 8d 4d f0          	lea    -0x10(%rbp),%rcx
    c87d:	48 8b 55 c8          	mov    -0x38(%rbp),%rdx
    c881:	48 8d 75 e8          	lea    -0x18(%rbp),%rsi
    c885:	48 89 c7             	mov    %rax,%rdi
    c888:	e8 f8 a2 00 00       	call   16b85 <_ZN3c106detail12_str_wrapperIJPKcRKNS_10ScalarTypeES3_EE4callERKS3_S6_S9_>
    c88d:	48 8b 45 f8          	mov    -0x8(%rbp),%rax
    c891:	64 48 2b 04 25 28 00 	sub    %fs:0x28,%rax
    c898:	00 00 
    c89a:	74 05                	je     c8a1 <_ZN3c103strIJA25_cNS_10ScalarTypeEA28_cEEEDcDpRKT_+0x63>
    c89c:	e8 5f c8 ff ff       	call   9100 <__stack_chk_fail@plt>
    c8a1:	48 8b 45 d8          	mov    -0x28(%rbp),%rax
    c8a5:	c9                   	leave
    c8a6:	c3                   	ret

000000000000c8a7 <_ZN6caffe28TypeMeta14fromScalarTypeEN3c1010ScalarTypeE>:
    c8a7:	55                   	push   %rbp
    c8a8:	48 89 e5             	mov    %rsp,%rbp
    c8ab:	53                   	push   %rbx
    c8ac:	48 83 ec 38          	sub    $0x38,%rsp
